(lp1
((lp2
I2
aI4
aI1
aI1
aS'1'
tp3
a((lp4
I1
aI3
aI1
aI1
aS'1'
tp5
a((lp6
I3
aI2
aI3
aI3
aS'2'
tp7
a((lp8
I2
aI2
aI3
aI3
aS'2'
tp9
a((lp10
I1
aI3
aI1
aI1
aS'1'
tp11
a((lp12
I3
aI3
aI4
aI4
aS'2'
tp13
a((lp14
I2
aI4
aI1
aI1
aS'1'
tp15
a((lp16
I1
aI1
aI2
aI2
aS'2'
tp17
a((lp18
I4
aI3
aI4
aI3
aS'2'
tp19
a((lp20
I1
aI3
aI1
aI1
aS'1'
tp21
a((lp22
I2
aI4
aI1
aI1
aS'1'
tp23
a((lp24
I3
aI5
aI1
aI1
aS'1'
tp25
a((lp26
I2
aI3
aI1
aI1
aS'1'
tp27
a((lp28
I2
aI2
aI3
aI3
aS'2'
tp29
a((lp30
I2
aI4
aI1
aI1
aS'1'
tp31
a((lp32
I3
aI2
aI4
aI4
aS'3'
tp33
a((lp34
I4
aI3
aI5
aI5
aS'3'
tp35
a((lp36
I2
aI2
aI4
aI4
aS'3'
tp37
a((lp38
I2
aI4
aI1
aI1
aS'1'
tp39
a((lp40
I2
aI5
aI1
aI1
aS'1'
tp41
a((lp42
I1
aI3
aI1
aI1
aS'1'
tp43
a((lp44
I1
aI1
aI3
aI2
aS'2'
tp45
a((lp46
I4
aI3
aI4
aI5
aS'3'
tp47
a((lp48
I5
aI2
aI5
aS'3'
tp49
a((lp50
I1
aI2
aI3
aI4
aS'3'
tp51
a((lp52
I1
aI3
aI1
aI1
aS'1'
tp53
a((lp54
I3
aI2
aI4
aI4
aS'3'
tp55
a((lp56
I2
aI1
aI3
aI3
aS'2'
tp57
a((lp58
I3
aI2
aI3
aI3
aS'2'
tp59
a((lp60
I1
aI3
aI1
aI1
aS'1'
tp61
a((lp62
I1
aI3
aI1
aI1
aS'1'
tp63
a((lp64
I3
aI1
aI4
aI3
aS'3'
tp65
a((lp66
I2
aI2
aI3
aI3
aS'2'
tp67
a((lp68
I3
aI1
aI3
aI3
aS'2'
tp69
a((lp70
I5
aI2
aI5
aI4
aS'3'
tp71
a((lp72
I1
aI4
aI1
aI1
aS'1'
tp73
a((lp74
I3
aI2
aI4
aI3
aS'2'
tp75
a((lp76
I4
aI3
aI4
aI3
aS'2'
tp77
a((lp78
I4
aI5
aI4
aS'3'
tp79
a((lp80
I2
aI1
aI3
aI3
aS'2'
tp81
a((lp82
I3
aI3
aI4
aI5
aS'3'
tp83
a((lp84
I3
aI2
aI4
aI4
aS'3'
tp85
a((lp86
I3
aI2
aI4
aI5
aS'3'
tp87
a((lp88
I1
aI4
aI1
aI2
aS'1'
tp89
a((lp90
I2
aI4
aI1
aI1
aS'1'
tp91
a((lp92
I2
aI3
aI1
aI1
aS'1'
tp93
a((lp94
I2
aI4
aI1
aI1
aS'1'
tp95
a((lp96
I3
aI3
aI3
aI3
aS'2'
tp97
a((lp98
I2
aI3
aI3
aI3
aS'2'
tp99
a((lp100
I3
aI2
aI3
aI3
aS'2'
tp101
a((lp102
I5
aI3
aI5
aI4
aS'3'
tp103
a((lp104
I4
aI3
aI3
aI3
aS'2'
tp105
a((lp106
I4
aI3
aI4
aI4
aS'2'
tp107
a((lp108
I3
aI3
aI4
aI5
aS'3'
tp109
a((lp110
I3
aI3
aI4
aI4
aS'3'
tp111
a((lp112
I2
aI2
aI3
aI3
aS'2'
tp113
a((lp114
I4
aI3
aI3
aI3
aS'2'
tp115
a((lp116
I2
aI5
aI1
aI1
aS'1'
tp117
a((lp118
I2
aI3
aI1
aI1
aS'1'
tp119
a((lp120
I3
aI3
aI5
aS'3'
tp121
a((lp122
I1
aI3
aI1
aI1
aS'1'
tp123
a((lp124
I1
aI2
aI1
aI1
aS'1'
tp125
a((lp126
I2
aI4
aI1
aI1
aS'1'
tp127
a((lp128
I4
aI3
aI4
aI5
aS'3'
tp129
a((lp130
I2
aI4
aI1
aI1
aS'1'
tp131
a((lp132
I3
aI2
aI4
aI4
aS'2'
tp133
a((lp134
I5
aI2
aI5
aI4
aS'3'
tp135
a((lp136
I1
aI3
aI1
aI1
aS'1'
tp137
a((lp138
I4
aI3
aI5
aI5
aS'3'
tp139
a((lp140
I4
aI3
aI4
aI5
aS'3'
tp141
a((lp142
I2
aI3
aI3
aI3
aS'2'
tp143
a((lp144
I3
aI2
aI4
aI3
aS'2'
tp145
a((lp146
I1
aI3
aI1
aI1
aS'1'
tp147
a((lp148
I3
aI3
aI3
aI4
aS'2'
tp149
a((lp150
I3
aI2
aI3
aI3
aS'2'
tp151
a((lp152
I3
aI2
aI4
aI3
aS'3'
tp153
a((lp154
I3
aI1
aI3
aI3
aS'2'
tp155
a((lp156
I2
aI2
aI3
aI3
aS'2'
tp157
a((lp158
I2
aI3
aI1
aI1
aS'1'
tp159
a((lp160
I1
aI1
aI1
aI1
aS'1'
tp161
a((lp162
I3
aI2
aI3
aI3
aS'2'
tp163
a((lp164
I2
aI2
aI3
aI3
aS'2'
tp165
a((lp166
I1
aI3
aI1
aI1
aS'1'
tp167
a((lp168
I3
aI2
aI4
aI3
aS'2'
tp169
a((lp170
I1
aI4
aI1
aI1
aS'1'
tp171
a((lp172
I2
aI2
aI2
aI3
aS'2'
tp173
a((lp174
I2
aI4
aI1
aI1
aS'1'
tp175
a((lp176
I3
aI2
aI4
aI5
aS'3'
tp177
a((lp178
I3
aI2
aI4
aI4
aS'3'
tp179
a((lp180
I4
aI3
aI4
aI4
aS'3'
tp181
a((lp182
I5
aI4
aI5
aS'3'
tp183
a((lp184
I5
aI4
aI5
aI5
aS'3'
tp185
a((lp186
I3
aI3
aI4
aI5
aS'3'
tp187
a((lp188
I3
aI3
aI4
aI4
aS'3'
tp189
a((lp190
I3
aI2
aI4
aI4
aS'3'
tp191
a((lp192
I4
aI2
aI4
aI3
aS'2'
tp193
a((lp194
I3
aI2
aI4
aI4
aS'3'
tp195
a((lp196
I3
aI2
aI3
aI3
aS'2'
tp197
a((lp198
I5
aI3
aI5
aI4
aS'3'
tp199
a((lp200
I2
aI3
aI3
aI3
aS'2'
tp201
a((lp202
I4
aI3
aI4
aI4
aS'3'
tp203
a((lp204
I2
aI1
aI1
aS'1'
tp205
a((lp206
I4
aI3
aI4
aS'3'
tp207
a((lp208
I5
aI3
aI5
aI5
aS'3'
tp209
a((lp210
I1
aI3
aI1
aI1
aS'1'
tp211
a((lp212
I1
aI3
aI1
aI1
aS'1'
tp213
a((lp214
I4
aI3
aI4
aI5
aS'3'
tp215
a((lp216
I2
aI4
aI1
aI1
aS'1'
tp217
a((lp218
I3
aI2
aI4
aI4
aS'3'
tp219
a((lp220
I4
aI2
aI5
aI4
aS'3'
tp221
a((lp222
I1
aI3
aI1
aI1
aS'1'
tp223
a((lp224
I1
aI3
aI1
aI1
aS'1'
tp225
a((lp226
I4
aI3
aI5
aI5
aS'3'
tp227
a((lp228
I3
aI3
aI4
aI4
aS'3'
tp229
a((lp230
I5
aI2
aI5
aI4
aS'3'
tp231
a((lp232
I4
aI3
aI4
aI5
aS'3'
tp233
a((lp234
I4
aI2
aI4
aI3
aS'2'
tp235
a((lp236
I1
aI3
aI1
aI1
aS'1'
tp237
a((lp238
I3
aI3
aI4
aI4
aS'2'
tp239
a((lp240
I1
aI3
aI1
aI1
aS'1'
tp241
a((lp242
I1
aI4
aI1
aI1
aS'1'
tp243
a((lp244
I2
aI1
aI3
aI2
aS'2'
tp245
a((lp246
I1
aI3
aI1
aI1
aS'1'
tp247
a((lp248
I3
aI3
aI4
aI3
aS'2'
tp249
a((lp250
I1
aI3
aI1
aI1
aS'1'
tp251
a((lp252
I1
aI3
aI1
aI1
aS'1'
tp253
a((lp254
I2
aI3
aI3
aI3
aS'2'
tp255
a((lp256
I2
aI4
aI1
aI1
aS'1'
tp257
a((lp258
I2
aI2
aI4
aI4
aS'3'
tp259
a((lp260
I2
aI2
aI3
aI2
aS'2'
tp261
a((lp262
I4
aI3
aI4
aI5
aS'3'
tp263
a((lp264
I1
aI3
aI1
aI1
aS'1'
tp265
a((lp266
I2
aI2
aI3
aI3
aS'2'
tp267
a((lp268
I2
aI4
aI1
aI1
aS'1'
tp269
a((lp270
I2
aI2
aI3
aI3
aS'2'
tp271
a((lp272
I3
aI2
aI3
aI2
aS'2'
tp273
a((lp274
I4
aI3
aI4
aI5
aS'3'
tp275
a((lp276
I4
aI3
aI4
aI4
aS'3'
tp277
a((lp278
I2
aI3
aI1
aI1
aS'1'
tp279
a((lp280
I4
aI2
aI4
aI3
aS'2'
tp281
a((lp282
I3
aI2
aI4
aI3
aS'3'
tp283
a((lp284
I1
aI3
aI1
aI1
aS'1'
tp285
a((lp286
I3
aI3
aI3
aI3
aS'2'
tp287
a((lp288
I3
aI3
aI4
aI4
aS'3'
tp289
a((lp290
I3
aI1
aI3
aI2
aS'2'
tp291
a((lp292
I4
aI3
aI4
aI3
aS'2'
tp293
a((lp294
I2
aI2
aI3
aI3
aS'2'
tp295
a((lp296
I1
aI1
aI2
aI2
aS'2'
tp297
a((lp298
I3
aI2
aI4
aI5
aS'3'
tp299
a((lp300
I5
aI3
aI5
aI5
aS'3'
tp301
a.