(lp1
((lp2
F5.6090909090909093
aF3.745454545454546
aF1.5363636363636364
aF0.31818181818181818
aS'1'
tp3
a((lp4
F4.9545454545454541
aF3.0909090909090908
aF1.5363636363636364
aF0.31818181818181818
aS'1'
tp5
a((lp6
F5.9363636363636365
aF2.872727272727273
aF4.2181818181818187
aF1.4090909090909092
aS'2'
tp7
a((lp8
F5.6090909090909093
aF3.0909090909090908
aF3.6818181818181817
aF1.4090909090909092
aS'2'
tp9
a((lp10
F5.2818181818181813
aF3.3090909090909095
aF1.5363636363636364
aF0.31818181818181818
aS'1'
tp11
a((lp12
F6.5909090909090917
aF3.3090909090909095
aF4.7545454545454549
aF1.6272727272727272
aS'2'
tp13
a((lp14
F5.2818181818181813
aF3.5272727272727273
aF1.5363636363636364
aF0.31818181818181818
aS'1'
tp15
a((lp16
F4.9545454545454541
aF2.4363636363636365
aF3.6818181818181817
aF1.1909090909090909
aS'2'
tp17
a((lp18
F6.918181818181818
aF3.3090909090909095
aF5.290909090909091
aF1.6272727272727272
aS'2'
tp19
a((lp20
F5.2818181818181813
aF3.3090909090909095
aF1.5363636363636364
aF0.31818181818181818
aS'1'
tp21
a((lp22
F5.2818181818181813
aF3.9636363636363638
aF2.0727272727272728
aF0.31818181818181818
aS'1'
tp23
a((lp24
F5.9363636363636365
aF4.1818181818181817
aF1.5363636363636364
aF0.31818181818181818
aS'1'
tp25
a((lp26
F5.6090909090909093
aF3.5272727272727273
aF1.5363636363636364
aF0.53636363636363638
aS'1'
tp27
a((lp28
F5.6090909090909093
aF2.872727272727273
aF4.2181818181818187
aF1.4090909090909092
aS'2'
tp29
a((lp30
F5.2818181818181813
aF3.9636363636363638
aF2.0727272727272728
aF0.53636363636363638
aS'1'
tp31
a((lp32
F6.5909090909090917
aF2.872727272727273
aF5.290909090909091
aF1.8454545454545455
aS'3'
tp33
a((lp34
F6.918181818181818
aF3.3090909090909095
aF6.3636363636363633
aF2.5
aS'3'
tp35
a((lp36
F5.9363636363636365
aF2.6545454545454548
aF5.290909090909091
aF2.0636363636363635
aS'3'
tp37
a((lp38
F5.9363636363636365
aF3.9636363636363638
aF2.0727272727272728
aF0.31818181818181818
aS'1'
tp39
a((lp40
F5.2818181818181813
aF4.1818181818181817
aF1.5363636363636364
aF0.31818181818181818
aS'1'
tp41
a((lp42
F4.627272727272727
aF3.0909090909090908
aF1.5363636363636364
aF0.31818181818181818
aS'1'
tp43
a((lp44
F5.2818181818181813
aF2.2181818181818183
aF3.6818181818181817
aF1.1909090909090909
aS'2'
tp45
a((lp46
F6.918181818181818
aF3.0909090909090908
aF5.8272727272727272
aF2.2818181818181817
aS'3'
tp47
a((lp48
F7.9000000000000004
aF2.6545454545454548
aF2.5
aS'3'
tp49
a((lp50
F4.9545454545454541
aF2.6545454545454548
aF4.7545454545454549
aF1.8454545454545455
aS'3'
tp51
a((lp52
F4.627272727272727
aF3.5272727272727273
aF1.5363636363636364
aF0.31818181818181818
aS'1'
tp53
a((lp54
F5.9363636363636365
aF2.872727272727273
aF5.290909090909091
aF2.0636363636363635
aS'3'
tp55
a((lp56
F5.6090909090909093
aF2.4363636363636365
aF4.2181818181818187
aF1.1909090909090909
aS'2'
tp57
a((lp58
F5.9363636363636365
aF2.6545454545454548
aF4.2181818181818187
aF1.4090909090909092
aS'2'
tp59
a((lp60
F4.9545454545454541
aF3.0909090909090908
aF1.5363636363636364
aF0.31818181818181818
aS'1'
tp61
a((lp62
F4.9545454545454541
aF3.3090909090909095
aF1.5363636363636364
aF0.31818181818181818
aS'1'
tp63
a((lp64
F6.2636363636363637
aF2.2181818181818183
aF5.290909090909091
aF1.6272727272727272
aS'3'
tp65
a((lp66
F5.9363636363636365
aF2.872727272727273
aF4.2181818181818187
aF1.4090909090909092
aS'2'
tp67
a((lp68
F6.2636363636363637
aF2.2181818181818183
aF4.7545454545454549
aF1.6272727272727272
aS'2'
tp69
a((lp70
F7.5727272727272732
aF3.0909090909090908
aF6.3636363636363633
aF1.8454545454545455
aS'3'
tp71
a((lp72
F5.2818181818181813
aF3.5272727272727273
aF1.5363636363636364
aF0.31818181818181818
aS'1'
tp73
a((lp74
F6.2636363636363637
aF2.872727272727273
aF4.7545454545454549
aF1.4090909090909092
aS'2'
tp75
a((lp76
F7.245454545454546
aF3.3090909090909095
aF4.7545454545454549
aF1.4090909090909092
aS'2'
tp77
a((lp78
F3.9636363636363638
aF6.9000000000000004
aF2.0636363636363635
aS'3'
tp79
a((lp80
F5.6090909090909093
aF2.4363636363636365
aF4.2181818181818187
aF1.4090909090909092
aS'2'
tp81
a((lp82
F6.2636363636363637
aF3.5272727272727273
aF5.8272727272727272
aF2.5
aS'3'
tp83
a((lp84
F6.2636363636363637
aF2.872727272727273
aF5.290909090909091
aF1.8454545454545455
aS'3'
tp85
a((lp86
F5.9363636363636365
aF2.872727272727273
aF5.290909090909091
aF2.5
aS'3'
tp87
a((lp88
F5.2818181818181813
aF3.5272727272727273
aF2.0727272727272728
aF0.75454545454545452
aS'1'
tp89
a((lp90
F5.6090909090909093
aF3.5272727272727273
aF1.5363636363636364
aF0.31818181818181818
aS'1'
tp91
a((lp92
F5.6090909090909093
aF3.5272727272727273
aF2.0727272727272728
aF0.31818181818181818
aS'1'
tp93
a((lp94
F5.2818181818181813
aF3.5272727272727273
aF1.5363636363636364
aF0.31818181818181818
aS'1'
tp95
a((lp96
F6.5909090909090917
aF3.3090909090909095
aF4.7545454545454549
aF1.6272727272727272
aS'2'
tp97
a((lp98
F5.6090909090909093
aF3.0909090909090908
aF4.2181818181818187
aF1.4090909090909092
aS'2'
tp99
a((lp100
F6.5909090909090917
aF3.0909090909090908
aF4.7545454545454549
aF1.4090909090909092
aS'2'
tp101
a((lp102
F7.245454545454546
aF3.3090909090909095
aF6.3636363636363633
aF1.8454545454545455
aS'3'
tp103
a((lp104
F6.918181818181818
aF3.0909090909090908
aF4.7545454545454549
aF1.4090909090909092
aS'2'
tp105
a((lp106
F6.918181818181818
aF3.0909090909090908
aF5.290909090909091
aF1.8454545454545455
aS'2'
tp107
a((lp108
F6.5909090909090917
aF3.3090909090909095
aF5.8272727272727272
aF2.5
aS'3'
tp109
a((lp110
F6.5909090909090917
aF3.3090909090909095
aF5.8272727272727272
aF1.8454545454545455
aS'3'
tp111
a((lp112
F5.2818181818181813
aF2.872727272727273
aF4.2181818181818187
aF1.4090909090909092
aS'2'
tp113
a((lp114
F6.918181818181818
aF3.3090909090909095
aF4.7545454545454549
aF1.4090909090909092
aS'2'
tp115
a((lp116
F5.6090909090909093
aF4.4000000000000004
aF1.5363636363636364
aF0.31818181818181818
aS'1'
tp117
a((lp118
F5.2818181818181813
aF3.5272727272727273
aF1.5363636363636364
aF0.31818181818181818
aS'1'
tp119
a((lp120
F6.5909090909090917
aF3.3090909090909095
aF6.3636363636363633
aS'3'
tp121
a((lp122
F4.627272727272727
aF3.3090909090909095
aF1.5363636363636364
aF0.31818181818181818
aS'1'
tp123
a((lp124
F4.627272727272727
aF3.0909090909090908
aF1.5363636363636364
aF0.31818181818181818
aS'1'
tp125
a((lp126
F5.6090909090909093
aF3.9636363636363638
aF2.0727272727272728
aF0.53636363636363638
aS'1'
tp127
a((lp128
F6.918181818181818
aF3.3090909090909095
aF5.8272727272727272
aF2.2818181818181817
aS'3'
tp129
a((lp130
F5.2818181818181813
aF3.9636363636363638
aF1.5363636363636364
aF0.31818181818181818
aS'1'
tp131
a((lp132
F6.2636363636363637
aF2.872727272727273
aF5.290909090909091
aF1.6272727272727272
aS'2'
tp133
a((lp134
F7.5727272727272732
aF2.872727272727273
aF6.3636363636363633
aF2.0636363636363635
aS'3'
tp135
a((lp136
F4.627272727272727
aF3.3090909090909095
aF1.5363636363636364
aF0.31818181818181818
aS'1'
tp137
a((lp138
F6.5909090909090917
aF3.0909090909090908
aF5.8272727272727272
aF2.2818181818181817
aS'3'
tp139
a((lp140
F6.918181818181818
aF3.3090909090909095
aF5.8272727272727272
aF2.5
aS'3'
tp141
a((lp142
F5.6090909090909093
aF3.0909090909090908
aF4.7545454545454549
aF1.6272727272727272
aS'2'
tp143
a((lp144
F6.2636363636363637
aF3.0909090909090908
aF4.7545454545454549
aF1.4090909090909092
aS'2'
tp145
a((lp146
F4.627272727272727
aF3.0909090909090908
aF1.5363636363636364
aF0.31818181818181818
aS'1'
tp147
a((lp148
F6.2636363636363637
aF3.5272727272727273
aF4.7545454545454549
aF1.6272727272727272
aS'2'
tp149
a((lp150
F6.2636363636363637
aF2.872727272727273
aF4.2181818181818187
aF1.4090909090909092
aS'2'
tp151
a((lp152
F6.5909090909090917
aF2.872727272727273
aF5.290909090909091
aF1.6272727272727272
aS'3'
tp153
a((lp154
F6.5909090909090917
aF2.4363636363636365
aF4.7545454545454549
aF1.4090909090909092
aS'2'
tp155
a((lp156
F5.9363636363636365
aF2.872727272727273
aF4.7545454545454549
aF1.4090909090909092
aS'2'
tp157
a((lp158
F5.2818181818181813
aF3.3090909090909095
aF2.0727272727272728
aF0.53636363636363638
aS'1'
tp159
a((lp160
F4.627272727272727
aF2.4363636363636365
aF1.5363636363636364
aF0.31818181818181818
aS'1'
tp161
a((lp162
F6.2636363636363637
aF3.0909090909090908
aF4.7545454545454549
aF1.4090909090909092
aS'2'
tp163
a((lp164
F5.9363636363636365
aF3.0909090909090908
aF4.2181818181818187
aF1.4090909090909092
aS'2'
tp165
a((lp166
F4.9545454545454541
aF3.5272727272727273
aF2.0727272727272728
aF0.31818181818181818
aS'1'
tp167
a((lp168
F6.5909090909090917
aF2.6545454545454548
aF5.290909090909091
aF1.6272727272727272
aS'2'
tp169
a((lp170
F5.2818181818181813
aF3.745454545454546
aF1.5363636363636364
aF0.31818181818181818
aS'1'
tp171
a((lp172
F5.2818181818181813
aF2.6545454545454548
aF3.1454545454545455
aF1.1909090909090909
aS'2'
tp173
a((lp174
F5.2818181818181813
aF3.745454545454546
aF1.5363636363636364
aF0.53636363636363638
aS'1'
tp175
a((lp176
F6.5909090909090917
aF2.872727272727273
aF5.8272727272727272
aF2.2818181818181817
aS'3'
tp177
a((lp178
F5.9363636363636365
aF2.872727272727273
aF5.290909090909091
aF2.0636363636363635
aS'3'
tp179
a((lp180
F6.5909090909090917
aF3.0909090909090908
aF5.290909090909091
aF2.0636363636363635
aS'3'
tp181
a((lp182
F7.245454545454546
aF3.745454545454546
aF6.3636363636363633
aS'3'
tp183
a((lp184
F7.9000000000000004
aF3.9636363636363638
aF6.9000000000000004
aF2.2818181818181817
aS'3'
tp185
a((lp186
F6.5909090909090917
aF3.5272727272727273
aF5.8272727272727272
aF2.5
aS'3'
tp187
a((lp188
F5.9363636363636365
aF3.0909090909090908
aF5.290909090909091
aF1.8454545454545455
aS'3'
tp189
a((lp190
F6.5909090909090917
aF2.6545454545454548
aF5.290909090909091
aF2.0636363636363635
aS'3'
tp191
a((lp192
F6.5909090909090917
aF2.872727272727273
aF4.7545454545454549
aF1.6272727272727272
aS'2'
tp193
a((lp194
F6.5909090909090917
aF2.872727272727273
aF5.8272727272727272
aF2.0636363636363635
aS'3'
tp195
a((lp196
F6.2636363636363637
aF3.0909090909090908
aF4.7545454545454549
aF1.6272727272727272
aS'2'
tp197
a((lp198
F7.245454545454546
aF3.0909090909090908
aF5.8272727272727272
aF1.6272727272727272
aS'3'
tp199
a((lp200
F5.9363636363636365
aF3.0909090909090908
aF4.2181818181818187
aF1.4090909090909092
aS'2'
tp201
a((lp202
F6.5909090909090917
aF3.3090909090909095
aF5.290909090909091
aF2.0636363636363635
aS'3'
tp203
a((lp204
F5.9363636363636365
aF1.5363636363636364
aF0.53636363636363638
aS'1'
tp205
a((lp206
F6.918181818181818
aF3.3090909090909095
aF5.8272727272727272
aS'3'
tp207
a((lp208
F7.9000000000000004
aF3.0909090909090908
aF6.9000000000000004
aF2.2818181818181817
aS'3'
tp209
a((lp210
F4.9545454545454541
aF3.3090909090909095
aF1.5363636363636364
aF0.31818181818181818
aS'1'
tp211
a((lp212
F4.627272727272727
aF3.3090909090909095
aF1.5363636363636364
aF0.31818181818181818
aS'1'
tp213
a((lp214
F6.918181818181818
aF3.3090909090909095
aF5.8272727272727272
aF2.5
aS'3'
tp215
a((lp216
F5.2818181818181813
aF3.5272727272727273
aF1.5363636363636364
aF0.31818181818181818
aS'1'
tp217
a((lp218
F6.5909090909090917
aF3.0909090909090908
aF5.8272727272727272
aF1.8454545454545455
aS'3'
tp219
a((lp220
F6.918181818181818
aF2.6545454545454548
aF5.8272727272727272
aF1.8454545454545455
aS'3'
tp221
a((lp222
F5.2818181818181813
aF3.5272727272727273
aF2.0727272727272728
aF0.53636363636363638
aS'1'
tp223
a((lp224
F4.9545454545454541
aF3.3090909090909095
aF1.5363636363636364
aF0.31818181818181818
aS'1'
tp225
a((lp226
F7.245454545454546
aF3.0909090909090908
aF6.3636363636363633
aF2.2818181818181817
aS'3'
tp227
a((lp228
F6.2636363636363637
aF3.0909090909090908
aF5.290909090909091
aF1.8454545454545455
aS'3'
tp229
a((lp230
F7.9000000000000004
aF2.872727272727273
aF6.9000000000000004
aF2.0636363636363635
aS'3'
tp231
a((lp232
F6.918181818181818
aF3.3090909090909095
aF5.290909090909091
aF2.5
aS'3'
tp233
a((lp234
F6.918181818181818
aF2.872727272727273
aF5.290909090909091
aF1.4090909090909092
aS'2'
tp235
a((lp236
F4.9545454545454541
aF3.3090909090909095
aF2.0727272727272728
aF0.31818181818181818
aS'1'
tp237
a((lp238
F5.9363636363636365
aF3.3090909090909095
aF5.290909090909091
aF1.8454545454545455
aS'2'
tp239
a((lp240
F4.9545454545454541
aF3.3090909090909095
aF2.0727272727272728
aF0.31818181818181818
aS'1'
tp241
a((lp242
F4.627272727272727
aF3.745454545454546
aF1.5363636363636364
aF0.31818181818181818
aS'1'
tp243
a((lp244
F5.6090909090909093
aF2.4363636363636365
aF4.2181818181818187
aF1.1909090909090909
aS'2'
tp245
a((lp246
F5.2818181818181813
aF3.5272727272727273
aF1.5363636363636364
aF0.31818181818181818
aS'1'
tp247
a((lp248
F6.2636363636363637
aF3.0909090909090908
aF4.7545454545454549
aF1.4090909090909092
aS'2'
tp249
a((lp250
F4.9545454545454541
aF3.3090909090909095
aF1.5363636363636364
aF0.31818181818181818
aS'1'
tp251
a((lp252
F5.2818181818181813
aF3.0909090909090908
aF2.0727272727272728
aF0.31818181818181818
aS'1'
tp253
a((lp254
F5.6090909090909093
aF3.0909090909090908
aF4.7545454545454549
aF1.6272727272727272
aS'2'
tp255
a((lp256
F5.6090909090909093
aF3.9636363636363638
aF1.5363636363636364
aF0.53636363636363638
aS'1'
tp257
a((lp258
F5.6090909090909093
aF2.872727272727273
aF5.290909090909091
aF2.0636363636363635
aS'3'
tp259
a((lp260
F5.9363636363636365
aF2.6545454545454548
aF3.6818181818181817
aF1.1909090909090909
aS'2'
tp261
a((lp262
F6.918181818181818
aF3.0909090909090908
aF5.290909090909091
aF2.5
aS'3'
tp263
a((lp264
F4.9545454545454541
aF3.0909090909090908
aF1.5363636363636364
aF0.31818181818181818
aS'1'
tp265
a((lp266
F5.6090909090909093
aF2.6545454545454548
aF4.2181818181818187
aF1.4090909090909092
aS'2'
tp267
a((lp268
F5.6090909090909093
aF3.745454545454546
aF1.5363636363636364
aF0.31818181818181818
aS'1'
tp269
a((lp270
F5.6090909090909093
aF2.6545454545454548
aF4.2181818181818187
aF1.1909090909090909
aS'2'
tp271
a((lp272
F5.9363636363636365
aF2.872727272727273
aF4.2181818181818187
aF1.1909090909090909
aS'2'
tp273
a((lp274
F6.918181818181818
aF3.3090909090909095
aF5.8272727272727272
aF2.2818181818181817
aS'3'
tp275
a((lp276
F6.5909090909090917
aF3.0909090909090908
aF5.8272727272727272
aF1.8454545454545455
aS'3'
tp277
a((lp278
F5.2818181818181813
aF3.5272727272727273
aF1.5363636363636364
aF0.31818181818181818
aS'1'
tp279
a((lp280
F6.918181818181818
aF3.0909090909090908
aF4.7545454545454549
aF1.4090909090909092
aS'2'
tp281
a((lp282
F6.2636363636363637
aF2.6545454545454548
aF5.8272727272727272
aF1.4090909090909092
aS'3'
tp283
a((lp284
F4.9545454545454541
aF3.5272727272727273
aF2.0727272727272728
aF0.31818181818181818
aS'1'
tp285
a((lp286
F5.9363636363636365
aF3.0909090909090908
aF4.2181818181818187
aF1.6272727272727272
aS'2'
tp287
a((lp288
F6.2636363636363637
aF3.0909090909090908
aF5.290909090909091
aF1.8454545454545455
aS'3'
tp289
a((lp290
F6.2636363636363637
aF2.2181818181818183
aF4.2181818181818187
aF1.1909090909090909
aS'2'
tp291
a((lp292
F6.918181818181818
aF3.3090909090909095
aF4.7545454545454549
aF1.6272727272727272
aS'2'
tp293
a((lp294
F5.6090909090909093
aF2.6545454545454548
aF4.7545454545454549
aF1.4090909090909092
aS'2'
tp295
a((lp296
F5.2818181818181813
aF2.4363636363636365
aF3.6818181818181817
aF1.1909090909090909
aS'2'
tp297
a((lp298
F6.5909090909090917
aF2.872727272727273
aF5.8272727272727272
aF2.2818181818181817
aS'3'
tp299
a((lp300
F7.9000000000000004
aF3.0909090909090908
aF6.3636363636363633
aF2.5
aS'3'
tp301
a.