(lp1
((lp2
F5.5857142857142854
aF3.7142857142857144
aF1.842857142857143
aF0.27142857142857146
aS'1'
tp3
a((lp4
F5.0714285714285712
aF3.0285714285714285
aF1.4214285714285715
aF0.27142857142857146
aS'1'
tp5
a((lp6
F5.8428571428571434
aF2.8571428571428572
aF3.9500000000000002
aF1.3
aS'2'
tp7
a((lp8
F5.8428571428571434
aF3.0285714285714285
aF3.9500000000000002
aF1.4714285714285715
aS'2'
tp9
a((lp10
F5.0714285714285712
aF3.3714285714285719
aF1.4214285714285715
aF0.27142857142857146
aS'1'
tp11
a((lp12
F6.3571428571428577
aF3.3714285714285719
aF4.7928571428571427
aF1.642857142857143
aS'2'
tp13
a((lp14
F5.3285714285714283
aF3.5428571428571431
aF1.842857142857143
aF0.27142857142857146
aS'1'
tp15
a((lp16
F5.0714285714285712
aF2.5142857142857142
aF3.5285714285714285
aF1.1285714285714286
aS'2'
tp17
a((lp18
F7.1285714285714281
aF3.2000000000000002
aF5.2142857142857144
aF1.642857142857143
aS'2'
tp19
a((lp20
F5.0714285714285712
aF3.3714285714285719
aF1.4214285714285715
aF0.27142857142857146
aS'1'
tp21
a((lp22
F5.3285714285714283
aF3.8857142857142861
aF1.842857142857143
aF0.27142857142857146
aS'1'
tp23
a((lp24
F5.8428571428571434
aF4.0571428571428569
aF1.4214285714285715
aF0.27142857142857146
aS'1'
tp25
a((lp26
F5.5857142857142854
aF3.5428571428571431
aF1.842857142857143
aF0.44285714285714284
aS'1'
tp27
a((lp28
F5.8428571428571434
aF2.8571428571428572
aF4.3714285714285719
aF1.4714285714285715
aS'2'
tp29
a((lp30
F5.3285714285714283
aF3.8857142857142861
aF2.2642857142857142
aF0.44285714285714284
aS'1'
tp31
a((lp32
F6.3571428571428577
aF2.8571428571428572
aF5.2142857142857144
aF1.8142857142857145
aS'3'
tp33
a((lp34
F6.8714285714285719
aF3.3714285714285719
aF6.0571428571428569
aF2.3285714285714287
aS'3'
tp35
a((lp36
F5.8428571428571434
aF2.5142857142857142
aF5.2142857142857144
aF2.157142857142857
aS'3'
tp37
a((lp38
F5.8428571428571434
aF3.8857142857142861
aF1.842857142857143
aF0.44285714285714284
aS'1'
tp39
a((lp40
F5.3285714285714283
aF4.2285714285714295
aF1.842857142857143
aF0.27142857142857146
aS'1'
tp41
a((lp42
F4.5571428571428569
aF3.0285714285714285
aF1.4214285714285715
aF0.27142857142857146
aS'1'
tp43
a((lp44
F5.0714285714285712
aF2.1714285714285713
aF3.5285714285714285
aF1.1285714285714286
aS'2'
tp45
a((lp46
F6.8714285714285719
aF3.0285714285714285
aF5.6357142857142861
aF2.157142857142857
aS'3'
tp47
a((lp48
F7.9000000000000004
aF2.6857142857142859
aF2.3285714285714287
aS'3'
tp49
a((lp50
F5.0714285714285712
aF2.5142857142857142
aF4.7928571428571427
aF1.8142857142857145
aS'3'
tp51
a((lp52
F4.8142857142857141
aF3.5428571428571431
aF1.4214285714285715
aF0.44285714285714284
aS'1'
tp53
a((lp54
F5.8428571428571434
aF2.8571428571428572
aF5.2142857142857144
aF1.9857142857142858
aS'3'
tp55
a((lp56
F5.5857142857142854
aF2.5142857142857142
aF3.9500000000000002
aF1.1285714285714286
aS'2'
tp57
a((lp58
F5.8428571428571434
aF2.6857142857142859
aF4.3714285714285719
aF1.3
aS'2'
tp59
a((lp60
F4.8142857142857141
aF3.0285714285714285
aF1.4214285714285715
aF0.44285714285714284
aS'1'
tp61
a((lp62
F4.8142857142857141
aF3.3714285714285719
aF1.4214285714285715
aF0.27142857142857146
aS'1'
tp63
a((lp64
F6.0999999999999996
aF2.342857142857143
aF5.2142857142857144
aF1.642857142857143
aS'3'
tp65
a((lp66
F5.8428571428571434
aF2.8571428571428572
aF4.3714285714285719
aF1.4714285714285715
aS'2'
tp67
a((lp68
F6.3571428571428577
aF2.342857142857143
aF4.7928571428571427
aF1.642857142857143
aS'2'
tp69
a((lp70
F7.3857142857142861
aF3.0285714285714285
aF6.4785714285714286
aF1.8142857142857145
aS'3'
tp71
a((lp72
F5.0714285714285712
aF3.5428571428571431
aF1.4214285714285715
aF0.44285714285714284
aS'1'
tp73
a((lp74
F6.3571428571428577
aF2.8571428571428572
aF4.7928571428571427
aF1.3
aS'2'
tp75
a((lp76
F7.1285714285714281
aF3.3714285714285719
aF4.7928571428571427
aF1.4714285714285715
aS'2'
tp77
a((lp78
F3.8857142857142861
aF6.4785714285714286
aF2.157142857142857
aS'3'
tp79
a((lp80
F5.5857142857142854
aF2.342857142857143
aF4.3714285714285719
aF1.4714285714285715
aS'2'
tp81
a((lp82
F6.3571428571428577
aF3.5428571428571431
aF5.6357142857142861
aF2.3285714285714287
aS'3'
tp83
a((lp84
F6.3571428571428577
aF2.8571428571428572
aF5.2142857142857144
aF1.8142857142857145
aS'3'
tp85
a((lp86
F5.8428571428571434
aF2.8571428571428572
aF5.2142857142857144
aF2.5
aS'3'
tp87
a((lp88
F5.0714285714285712
aF3.5428571428571431
aF1.842857142857143
aF0.61428571428571421
aS'1'
tp89
a((lp90
F5.5857142857142854
aF3.5428571428571431
aF1.4214285714285715
aF0.27142857142857146
aS'1'
tp91
a((lp92
F5.5857142857142854
aF3.5428571428571431
aF1.842857142857143
aF0.27142857142857146
aS'1'
tp93
a((lp94
F5.3285714285714283
aF3.5428571428571431
aF1.4214285714285715
aF0.27142857142857146
aS'1'
tp95
a((lp96
F6.6142857142857139
aF3.3714285714285719
aF4.7928571428571427
aF1.642857142857143
aS'2'
tp97
a((lp98
F5.8428571428571434
aF3.0285714285714285
aF4.3714285714285719
aF1.4714285714285715
aS'2'
tp99
a((lp100
F6.6142857142857139
aF3.0285714285714285
aF4.3714285714285719
aF1.4714285714285715
aS'2'
tp101
a((lp102
F7.3857142857142861
aF3.3714285714285719
aF6.0571428571428569
aF1.8142857142857145
aS'3'
tp103
a((lp104
F6.6142857142857139
aF3.0285714285714285
aF4.7928571428571427
aF1.4714285714285715
aS'2'
tp105
a((lp106
F6.8714285714285719
aF3.0285714285714285
aF5.2142857142857144
aF1.8142857142857145
aS'2'
tp107
a((lp108
F6.6142857142857139
aF3.3714285714285719
aF5.6357142857142861
aF2.3285714285714287
aS'3'
tp109
a((lp110
F6.6142857142857139
aF3.2000000000000002
aF5.6357142857142861
aF1.8142857142857145
aS'3'
tp111
a((lp112
F5.3285714285714283
aF2.8571428571428572
aF3.9500000000000002
aF1.4714285714285715
aS'2'
tp113
a((lp114
F6.8714285714285719
aF3.2000000000000002
aF4.7928571428571427
aF1.4714285714285715
aS'2'
tp115
a((lp116
F5.5857142857142854
aF4.2285714285714295
aF1.4214285714285715
aF0.27142857142857146
aS'1'
tp117
a((lp118
F5.3285714285714283
aF3.5428571428571431
aF1.4214285714285715
aF0.27142857142857146
aS'1'
tp119
a((lp120
F6.3571428571428577
aF3.3714285714285719
aF6.0571428571428569
aS'3'
tp121
a((lp122
F4.5571428571428569
aF3.3714285714285719
aF1.4214285714285715
aF0.27142857142857146
aS'1'
tp123
a((lp124
F4.5571428571428569
aF3.0285714285714285
aF1.4214285714285715
aF0.27142857142857146
aS'1'
tp125
a((lp126
F5.5857142857142854
aF4.0571428571428569
aF1.842857142857143
aF0.44285714285714284
aS'1'
tp127
a((lp128
F7.1285714285714281
aF3.2000000000000002
aF5.6357142857142861
aF2.157142857142857
aS'3'
tp129
a((lp130
F5.3285714285714283
aF3.8857142857142861
aF1.842857142857143
aF0.44285714285714284
aS'1'
tp131
a((lp132
F6.0999999999999996
aF2.8571428571428572
aF5.2142857142857144
aF1.642857142857143
aS'2'
tp133
a((lp134
F7.6428571428571432
aF2.8571428571428572
aF6.4785714285714286
aF1.9857142857142858
aS'3'
tp135
a((lp136
F4.8142857142857141
aF3.3714285714285719
aF1.4214285714285715
aF0.27142857142857146
aS'1'
tp137
a((lp138
F6.6142857142857139
aF3.0285714285714285
aF6.0571428571428569
aF2.3285714285714287
aS'3'
tp139
a((lp140
F7.1285714285714281
aF3.3714285714285719
aF6.0571428571428569
aF2.3285714285714287
aS'3'
tp141
a((lp142
F5.8428571428571434
aF3.0285714285714285
aF4.7928571428571427
aF1.642857142857143
aS'2'
tp143
a((lp144
F6.3571428571428577
aF3.0285714285714285
aF4.7928571428571427
aF1.4714285714285715
aS'2'
tp145
a((lp146
F4.5571428571428569
aF3.0285714285714285
aF1.4214285714285715
aF0.27142857142857146
aS'1'
tp147
a((lp148
F6.0999999999999996
aF3.5428571428571431
aF4.7928571428571427
aF1.642857142857143
aS'2'
tp149
a((lp150
F6.3571428571428577
aF2.8571428571428572
aF4.3714285714285719
aF1.4714285714285715
aS'2'
tp151
a((lp152
F6.3571428571428577
aF2.8571428571428572
aF5.2142857142857144
aF1.642857142857143
aS'3'
tp153
a((lp154
F6.3571428571428577
aF2.342857142857143
aF4.7928571428571427
aF1.4714285714285715
aS'2'
tp155
a((lp156
F5.8428571428571434
aF2.8571428571428572
aF4.7928571428571427
aF1.4714285714285715
aS'2'
tp157
a((lp158
F5.3285714285714283
aF3.3714285714285719
aF1.842857142857143
aF0.61428571428571421
aS'1'
tp159
a((lp160
F4.5571428571428569
aF2.342857142857143
aF1.4214285714285715
aF0.44285714285714284
aS'1'
tp161
a((lp162
F6.3571428571428577
aF3.0285714285714285
aF4.3714285714285719
aF1.4714285714285715
aS'2'
tp163
a((lp164
F5.8428571428571434
aF3.0285714285714285
aF4.3714285714285719
aF1.4714285714285715
aS'2'
tp165
a((lp166
F4.8142857142857141
aF3.5428571428571431
aF2.2642857142857142
aF0.27142857142857146
aS'1'
tp167
a((lp168
F6.3571428571428577
aF2.5142857142857142
aF5.2142857142857144
aF1.642857142857143
aS'2'
tp169
a((lp170
F5.0714285714285712
aF3.7142857142857144
aF1.4214285714285715
aF0.27142857142857146
aS'1'
tp171
a((lp172
F5.3285714285714283
aF2.5142857142857142
aF3.1071428571428572
aF1.1285714285714286
aS'2'
tp173
a((lp174
F5.3285714285714283
aF3.7142857142857144
aF1.842857142857143
aF0.44285714285714284
aS'1'
tp175
a((lp176
F6.6142857142857139
aF2.8571428571428572
aF5.6357142857142861
aF2.157142857142857
aS'3'
tp177
a((lp178
F5.8428571428571434
aF2.8571428571428572
aF5.2142857142857144
aF1.9857142857142858
aS'3'
tp179
a((lp180
F6.6142857142857139
aF3.0285714285714285
aF5.2142857142857144
aF2.157142857142857
aS'3'
tp181
a((lp182
F7.3857142857142861
aF3.7142857142857144
aF6.4785714285714286
aS'3'
tp183
a((lp184
F7.9000000000000004
aF3.8857142857142861
aF6.9000000000000004
aF2.3285714285714287
aS'3'
tp185
a((lp186
F6.3571428571428577
aF3.5428571428571431
aF5.6357142857142861
aF2.5
aS'3'
tp187
a((lp188
F6.0999999999999996
aF3.0285714285714285
aF5.2142857142857144
aF1.8142857142857145
aS'3'
tp189
a((lp190
F6.3571428571428577
aF2.5142857142857142
aF5.2142857142857144
aF1.9857142857142858
aS'3'
tp191
a((lp192
F6.6142857142857139
aF2.8571428571428572
aF4.7928571428571427
aF1.642857142857143
aS'2'
tp193
a((lp194
F6.6142857142857139
aF2.8571428571428572
aF5.6357142857142861
aF1.9857142857142858
aS'3'
tp195
a((lp196
F6.0999999999999996
aF3.0285714285714285
aF4.7928571428571427
aF1.642857142857143
aS'2'
tp197
a((lp198
F7.3857142857142861
aF3.0285714285714285
aF6.0571428571428569
aF1.642857142857143
aS'3'
tp199
a((lp200
F5.8428571428571434
aF3.0285714285714285
aF4.3714285714285719
aF1.3
aS'2'
tp201
a((lp202
F6.6142857142857139
aF3.3714285714285719
aF5.2142857142857144
aF2.157142857142857
aS'3'
tp203
a((lp204
F5.8428571428571434
aF1.842857142857143
aF0.44285714285714284
aS'1'
tp205
a((lp206
F6.8714285714285719
aF3.3714285714285719
aF6.0571428571428569
aS'3'
tp207
a((lp208
F7.6428571428571432
aF3.0285714285714285
aF6.9000000000000004
aF2.157142857142857
aS'3'
tp209
a((lp210
F5.0714285714285712
aF3.2000000000000002
aF1.842857142857143
aF0.27142857142857146
aS'1'
tp211
a((lp212
F4.8142857142857141
aF3.2000000000000002
aF1.842857142857143
aF0.27142857142857146
aS'1'
tp213
a((lp214
F6.8714285714285719
aF3.2000000000000002
aF5.6357142857142861
aF2.5
aS'3'
tp215
a((lp216
F5.3285714285714283
aF3.5428571428571431
aF1.4214285714285715
aF0.44285714285714284
aS'1'
tp217
a((lp218
F6.3571428571428577
aF3.0285714285714285
aF5.6357142857142861
aF1.8142857142857145
aS'3'
tp219
a((lp220
F6.8714285714285719
aF2.5142857142857142
aF6.0571428571428569
aF1.8142857142857145
aS'3'
tp221
a((lp222
F5.0714285714285712
aF3.5428571428571431
aF1.842857142857143
aF0.44285714285714284
aS'1'
tp223
a((lp224
F5.0714285714285712
aF3.2000000000000002
aF1.842857142857143
aF0.27142857142857146
aS'1'
tp225
a((lp226
F7.1285714285714281
aF3.0285714285714285
aF6.0571428571428569
aF2.157142857142857
aS'3'
tp227
a((lp228
F6.0999999999999996
aF3.0285714285714285
aF5.2142857142857144
aF1.8142857142857145
aS'3'
tp229
a((lp230
F7.9000000000000004
aF2.8571428571428572
aF6.9000000000000004
aF2.157142857142857
aS'3'
tp231
a((lp232
F7.1285714285714281
aF3.2000000000000002
aF5.2142857142857144
aF2.3285714285714287
aS'3'
tp233
a((lp234
F6.8714285714285719
aF2.8571428571428572
aF5.2142857142857144
aF1.4714285714285715
aS'2'
tp235
a((lp236
F4.8142857142857141
aF3.3714285714285719
aF1.842857142857143
aF0.27142857142857146
aS'1'
tp237
a((lp238
F6.0999999999999996
aF3.3714285714285719
aF5.2142857142857144
aF1.8142857142857145
aS'2'
tp239
a((lp240
F4.8142857142857141
aF3.2000000000000002
aF1.842857142857143
aF0.27142857142857146
aS'1'
tp241
a((lp242
F4.8142857142857141
aF3.7142857142857144
aF1.4214285714285715
aF0.27142857142857146
aS'1'
tp243
a((lp244
F5.5857142857142854
aF2.5142857142857142
aF3.9500000000000002
aF1.1285714285714286
aS'2'
tp245
a((lp246
F5.0714285714285712
aF3.5428571428571431
aF1.842857142857143
aF0.27142857142857146
aS'1'
tp247
a((lp248
F6.3571428571428577
aF3.0285714285714285
aF4.7928571428571427
aF1.4714285714285715
aS'2'
tp249
a((lp250
F5.0714285714285712
aF3.2000000000000002
aF1.842857142857143
aF0.27142857142857146
aS'1'
tp251
a((lp252
F5.0714285714285712
aF3.0285714285714285
aF1.842857142857143
aF0.27142857142857146
aS'1'
tp253
a((lp254
F5.5857142857142854
aF3.0285714285714285
aF4.7928571428571427
aF1.642857142857143
aS'2'
tp255
a((lp256
F5.5857142857142854
aF4.0571428571428569
aF1.4214285714285715
aF0.44285714285714284
aS'1'
tp257
a((lp258
F5.8428571428571434
aF2.8571428571428572
aF5.2142857142857144
aF2.157142857142857
aS'3'
tp259
a((lp260
F5.8428571428571434
aF2.6857142857142859
aF3.5285714285714285
aF1.1285714285714286
aS'2'
tp261
a((lp262
F6.8714285714285719
aF3.0285714285714285
aF5.2142857142857144
aF2.3285714285714287
aS'3'
tp263
a((lp264
F4.8142857142857141
aF3.0285714285714285
aF1.4214285714285715
aF0.27142857142857146
aS'1'
tp265
a((lp266
F5.5857142857142854
aF2.5142857142857142
aF4.3714285714285719
aF1.4714285714285715
aS'2'
tp267
a((lp268
F5.3285714285714283
aF3.7142857142857144
aF1.842857142857143
aF0.27142857142857146
aS'1'
tp269
a((lp270
F5.8428571428571434
aF2.5142857142857142
aF3.9500000000000002
aF1.1285714285714286
aS'2'
tp271
a((lp272
F5.8428571428571434
aF2.8571428571428572
aF4.3714285714285719
aF1.1285714285714286
aS'2'
tp273
a((lp274
F6.8714285714285719
aF3.3714285714285719
aF6.0571428571428569
aF2.157142857142857
aS'3'
tp275
a((lp276
F6.6142857142857139
aF3.0285714285714285
aF5.6357142857142861
aF1.8142857142857145
aS'3'
tp277
a((lp278
F5.3285714285714283
aF3.5428571428571431
aF1.842857142857143
aF0.27142857142857146
aS'1'
tp279
a((lp280
F6.6142857142857139
aF3.0285714285714285
aF4.7928571428571427
aF1.4714285714285715
aS'2'
tp281
a((lp282
F6.3571428571428577
aF2.6857142857142859
aF5.6357142857142861
aF1.4714285714285715
aS'3'
tp283
a((lp284
F4.8142857142857141
aF3.5428571428571431
aF1.842857142857143
aF0.27142857142857146
aS'1'
tp285
a((lp286
F6.0999999999999996
aF3.0285714285714285
aF4.3714285714285719
aF1.642857142857143
aS'2'
tp287
a((lp288
F6.3571428571428577
aF3.0285714285714285
aF5.2142857142857144
aF1.8142857142857145
aS'3'
tp289
a((lp290
F6.0999999999999996
aF2.342857142857143
aF4.3714285714285719
aF1.1285714285714286
aS'2'
tp291
a((lp292
F6.8714285714285719
aF3.2000000000000002
aF4.7928571428571427
aF1.642857142857143
aS'2'
tp293
a((lp294
F5.5857142857142854
aF2.6857142857142859
aF4.7928571428571427
aF1.3
aS'2'
tp295
a((lp296
F5.0714285714285712
aF2.342857142857143
aF3.5285714285714285
aF1.1285714285714286
aS'2'
tp297
a((lp298
F6.6142857142857139
aF2.8571428571428572
aF5.6357142857142861
aF2.3285714285714287
aS'3'
tp299
a((lp300
F7.9000000000000004
aF3.0285714285714285
aF6.4785714285714286
aF2.3285714285714287
aS'3'
tp301
a.