(lp1
((lp2
I6
aI13
aI2
aI1
aS'1'
tp3
a((lp4
I4
aI8
aI2
aI1
aS'1'
tp5
a((lp6
I8
aI6
aI9
aI9
aS'2'
tp7
a((lp8
I7
aI7
aI8
aI10
aS'2'
tp9
a((lp10
I4
aI10
aI2
aI1
aS'1'
tp11
a((lp12
I10
aI10
aI12
aI12
aS'2'
tp13
a((lp14
I5
aI12
aI2
aI1
aS'1'
tp15
a((lp16
I4
aI4
aI8
aI7
aS'2'
tp17
a((lp18
I14
aI9
aI12
aI11
aS'2'
tp19
a((lp20
I4
aI10
aI1
aI1
aS'1'
tp21
a((lp22
I5
aI14
aI2
aI1
aS'1'
tp23
a((lp24
I8
aI16
aI1
aI1
aS'1'
tp25
a((lp26
I6
aI11
aI2
aI3
aS'1'
tp27
a((lp28
I7
aI6
aI10
aI10
aS'2'
tp29
a((lp30
I5
aI14
aI3
aI3
aS'1'
tp31
a((lp32
I10
aI6
aI12
aI13
aS'3'
tp33
a((lp34
I13
aI10
aI15
aI17
aS'3'
tp35
a((lp36
I8
aI4
aI13
aI15
aS'3'
tp37
a((lp38
I8
aI14
aI3
aI2
aS'1'
tp39
a((lp40
I5
aI16
aI2
aI1
aS'1'
tp41
a((lp42
I1
aI8
aI1
aI1
aS'1'
tp43
a((lp44
I4
aI1
aI8
aI7
aS'2'
tp45
a((lp46
I13
aI8
aI14
aI16
aS'3'
tp47
a((lp48
I17
aI5
aI17
aS'3'
tp49
a((lp50
I4
aI4
aI11
aI12
aS'3'
tp51
a((lp52
I2
aI11
aI2
aI2
aS'1'
tp53
a((lp54
I8
aI6
aI13
aI14
aS'3'
tp55
a((lp56
I7
aI4
aI9
aI8
aS'2'
tp57
a((lp58
I8
aI5
aI10
aI9
aS'2'
tp59
a((lp60
I3
aI8
aI2
aI2
aS'1'
tp61
a((lp62
I3
aI10
aI1
aI1
aS'1'
tp63
a((lp64
I9
aI2
aI13
aI11
aS'3'
tp65
a((lp66
I8
aI6
aI10
aI10
aS'2'
tp67
a((lp68
I10
aI2
aI11
aI11
aS'2'
tp69
a((lp70
I15
aI7
aI17
aI13
aS'3'
tp71
a((lp72
I4
aI12
aI1
aI2
aS'1'
tp73
a((lp74
I10
aI6
aI12
aI9
aS'2'
tp75
a((lp76
I14
aI10
aI12
aI10
aS'2'
tp77
a((lp78
I14
aI17
aI15
aS'3'
tp79
a((lp80
I7
aI3
aI10
aI10
aS'2'
tp81
a((lp82
I10
aI11
aI14
aI17
aS'3'
tp83
a((lp84
I10
aI6
aI12
aI13
aS'3'
tp85
a((lp86
I8
aI6
aI13
aI18
aS'3'
tp87
a((lp88
I4
aI12
aI2
aI4
aS'1'
tp89
a((lp90
I7
aI12
aI1
aI1
aS'1'
tp91
a((lp92
I6
aI11
aI3
aI1
aS'1'
tp93
a((lp94
I5
aI12
aI2
aI1
aS'1'
tp95
a((lp96
I11
aI10
aI11
aI11
aS'2'
tp97
a((lp98
I7
aI8
aI10
aI10
aS'2'
tp99
a((lp100
I11
aI7
aI11
aI10
aS'2'
tp101
a((lp102
I15
aI10
aI16
aI13
aS'3'
tp103
a((lp104
I12
aI8
aI11
aI10
aS'2'
tp105
a((lp106
I13
aI8
aI13
aI12
aS'2'
tp107
a((lp108
I11
aI10
aI14
aI17
aS'3'
tp109
a((lp110
I11
aI9
aI14
aI13
aS'3'
tp111
a((lp112
I5
aI6
aI9
aI10
aS'2'
tp113
a((lp114
I13
aI9
aI11
aI10
aS'2'
tp115
a((lp116
I7
aI17
aI2
aI1
aS'1'
tp117
a((lp118
I5
aI11
aI2
aI1
aS'1'
tp119
a((lp120
I10
aI10
aI16
aS'3'
tp121
a((lp122
I1
aI10
aI1
aI1
aS'1'
tp123
a((lp124
I1
aI7
aI2
aI1
aS'1'
tp125
a((lp126
I6
aI15
aI3
aI3
aS'1'
tp127
a((lp128
I14
aI9
aI14
aI16
aS'3'
tp129
a((lp130
I5
aI14
aI2
aI2
aS'1'
tp131
a((lp132
I9
aI6
aI13
aI12
aS'2'
tp133
a((lp134
I16
aI6
aI16
aI14
aS'3'
tp135
a((lp136
I2
aI10
aI2
aI1
aS'1'
tp137
a((lp138
I12
aI8
aI15
aI16
aS'3'
tp139
a((lp140
I14
aI10
aI15
aI17
aS'3'
tp141
a((lp142
I7
aI8
aI11
aI11
aS'2'
tp143
a((lp144
I10
aI7
aI12
aI10
aS'2'
tp145
a((lp146
I1
aI8
aI1
aI1
aS'1'
tp147
a((lp148
I9
aI11
aI11
aI12
aS'2'
tp149
a((lp150
I10
aI6
aI10
aI10
aS'2'
tp151
a((lp152
I10
aI6
aI13
aI11
aS'3'
tp153
a((lp154
I10
aI3
aI11
aI10
aS'2'
tp155
a((lp156
I8
aI6
aI11
aI10
aS'2'
tp157
a((lp158
I5
aI10
aI3
aI4
aS'1'
tp159
a((lp160
I2
aI3
aI1
aI2
aS'1'
tp161
a((lp162
I10
aI7
aI11
aI10
aS'2'
tp163
a((lp164
I8
aI7
aI10
aI10
aS'2'
tp165
a((lp166
I3
aI11
aI3
aI1
aS'1'
tp167
a((lp168
I10
aI4
aI12
aI11
aS'2'
tp169
a((lp170
I4
aI12
aI2
aI1
aS'1'
tp171
a((lp172
I5
aI4
aI7
aI8
aS'2'
tp173
a((lp174
I5
aI13
aI2
aI3
aS'1'
tp175
a((lp176
I11
aI6
aI15
aI16
aS'3'
tp177
a((lp178
I8
aI6
aI13
aI14
aS'3'
tp179
a((lp180
I12
aI8
aI13
aI15
aS'3'
tp181
a((lp182
I15
aI12
aI16
aS'3'
tp183
a((lp184
I17
aI14
aI18
aI16
aS'3'
tp185
a((lp186
I10
aI11
aI15
aI18
aS'3'
tp187
a((lp188
I9
aI8
aI13
aI13
aS'3'
tp189
a((lp190
I10
aI4
aI13
aI14
aS'3'
tp191
a((lp192
I12
aI6
aI11
aI11
aS'2'
tp193
a((lp194
I11
aI6
aI14
aI14
aS'3'
tp195
a((lp196
I9
aI7
aI11
aI11
aS'2'
tp197
a((lp198
I15
aI8
aI15
aI12
aS'3'
tp199
a((lp200
I8
aI8
aI10
aI9
aS'2'
tp201
a((lp202
I12
aI10
aI13
aI15
aS'3'
tp203
a((lp204
I8
aI2
aI3
aS'1'
tp205
a((lp206
I13
aI10
aI15
aS'3'
tp207
a((lp208
I17
aI8
aI18
aI16
aS'3'
tp209
a((lp210
I4
aI9
aI2
aI1
aS'1'
tp211
a((lp212
I2
aI9
aI2
aI1
aS'1'
tp213
a((lp214
I13
aI9
aI15
aI18
aS'3'
tp215
a((lp216
I5
aI12
aI2
aI2
aS'1'
tp217
a((lp218
I10
aI7
aI15
aI13
aS'3'
tp219
a((lp220
I13
aI4
aI15
aI13
aS'3'
tp221
a((lp222
I4
aI11
aI2
aI3
aS'1'
tp223
a((lp224
I4
aI9
aI2
aI1
aS'1'
tp225
a((lp226
I14
aI8
aI15
aI16
aS'3'
tp227
a((lp228
I9
aI8
aI12
aI13
aS'3'
tp229
a((lp230
I17
aI6
aI18
aI15
aS'3'
tp231
a((lp232
I14
aI9
aI13
aI17
aS'3'
tp233
a((lp234
I13
aI6
aI12
aI10
aS'2'
tp235
a((lp236
I3
aI10
aI2
aI1
aS'1'
tp237
a((lp238
I9
aI10
aI12
aI13
aS'2'
tp239
a((lp240
I3
aI9
aI2
aI1
aS'1'
tp241
a((lp242
I2
aI12
aI1
aI1
aS'1'
tp243
a((lp244
I7
aI4
aI9
aI7
aS'2'
tp245
a((lp246
I4
aI11
aI2
aI1
aS'1'
tp247
a((lp248
I10
aI8
aI11
aI10
aS'2'
tp249
a((lp250
I4
aI9
aI2
aI1
aS'1'
tp251
a((lp252
I4
aI8
aI2
aI1
aS'1'
tp253
a((lp254
I6
aI8
aI11
aI11
aS'2'
tp255
a((lp256
I6
aI15
aI1
aI3
aS'1'
tp257
a((lp258
I7
aI6
aI12
aI15
aS'3'
tp259
a((lp260
I8
aI5
aI8
aI7
aS'2'
tp261
a((lp262
I13
aI8
aI13
aI17
aS'3'
tp263
a((lp264
I3
aI8
aI2
aI1
aS'1'
tp265
a((lp266
I7
aI4
aI10
aI10
aS'2'
tp267
a((lp268
I6
aI13
aI2
aI1
aS'1'
tp269
a((lp270
I7
aI4
aI9
aI8
aS'2'
tp271
a((lp272
I8
aI6
aI10
aI7
aS'2'
tp273
a((lp274
I13
aI10
aI15
aI16
aS'3'
tp275
a((lp276
I12
aI8
aI14
aI13
aS'3'
tp277
a((lp278
I5
aI11
aI2
aI1
aS'1'
tp279
a((lp280
I12
aI7
aI11
aI10
aS'2'
tp281
a((lp282
I10
aI5
aI15
aI10
aS'3'
tp283
a((lp284
I3
aI11
aI2
aI1
aS'1'
tp285
a((lp286
I9
aI8
aI10
aI11
aS'2'
tp287
a((lp288
I10
aI8
aI12
aI13
aS'3'
tp289
a((lp290
I9
aI2
aI10
aI7
aS'2'
tp291
a((lp292
I13
aI9
aI12
aI11
aS'2'
tp293
a((lp294
I7
aI5
aI11
aI9
aS'2'
tp295
a((lp296
I4
aI3
aI8
aI7
aS'2'
tp297
a((lp298
I11
aI6
aI15
aI16
aS'3'
tp299
a((lp300
I17
aI8
aI16
aI17
aS'3'
tp301
a.