(lp1
((lp2
I2
aI1
aI3
aI4
aI1
aI3
aI2
aI3
aI2
aI1
aI3
aI4
aI2
aS'2'
tp3
a((lp4
I3
aI3
aI3
aI3
aI2
aI2
aI1
aI5
aI3
aI4
aI1
aI1
aI2
aS'3'
tp5
a((lp6
I3
aI3
aI4
aI4
aI2
aI3
aI1
aI4
aI1
aI2
aI2
aI2
aI2
aS'3'
tp7
a((lp8
I4
aI1
aI3
aI2
aI4
aI4
aI3
aI2
aI3
aI2
aI3
aI5
aI2
aS'1'
tp9
a((lp10
I4
aI1
aI3
aI1
aI3
aI4
aI2
aI3
aI3
aI3
aI4
aI4
aS'1'
tp11
a((lp12
I4
aI2
aI4
aI3
aI2
aI3
aI3
aI2
aI2
aI1
aI3
aI5
aI3
aS'1'
tp13
a((lp14
I3
aI1
aI3
aI4
aI1
aI1
aI2
aI4
aI2
aI1
aI2
aI3
aI1
aS'2'
tp15
a((lp16
I1
aI3
aI2
aI3
aI3
aI4
aI3
aI2
aI1
aI2
aI3
aI2
aS'2'
tp17
a((lp18
I1
aI3
aI1
aI2
aI4
aI3
aI2
aI3
aI2
aI3
aI3
aI3
aS'1'
tp19
a((lp20
I2
aI1
aI4
aI2
aI2
aI3
aI2
aI1
aI4
aI1
aI2
aI4
aI1
aS'2'
tp21
a((lp22
I4
aI1
aI3
aI2
aI2
aI4
aI3
aI1
aI3
aI3
aI3
aI5
aI3
aS'1'
tp23
a((lp24
I4
aI4
aI5
aI4
aI3
aI2
aI1
aI2
aI2
aI4
aI1
aI2
aI2
aS'3'
tp25
a((lp26
I3
aI4
aI3
aI3
aI3
aI2
aI1
aI3
aI2
aI4
aI1
aI1
aI2
aS'3'
tp27
a((lp28
I2
aI2
aI3
aI3
aI2
aI3
aI2
aI2
aI2
aI1
aI2
aI4
aI1
aS'2'
tp29
a((lp30
I3
aI2
aI4
aI3
aI2
aI4
aI4
aI2
aI4
aI2
aI3
aI4
aI4
aS'1'
tp31
a((lp32
I5
aI2
aI4
aI3
aI3
aI4
aI3
aI2
aI3
aI3
aI3
aI3
aI4
aS'1'
tp33
a((lp34
I4
aI1
aI3
aI2
aI3
aI4
aI4
aI2
aI3
aI4
aI3
aI4
aI4
aS'1'
tp35
a((lp36
I2
aI1
aI3
aI4
aI1
aI3
aI3
aI3
aI3
aI1
aI2
aI3
aI1
aS'2'
tp37
a((lp38
I2
aI4
aI4
aI5
aI2
aI3
aI2
aI3
aI3
aI1
aI2
aI4
aI1
aS'2'
tp39
a((lp40
I4
aI4
aI3
aI4
aI2
aI2
aI1
aI3
aI2
aI3
aI1
aI1
aI2
aS'3'
tp41
a((lp42
I3
aI1
aI3
aI3
aI1
aI1
aI2
aI5
aI2
aI1
aI2
aI2
aI1
aS'2'
tp43
a((lp44
I2
aI3
aI3
aI2
aI3
aI2
aI2
aI3
aI1
aI1
aI2
aI3
aI1
aS'2'
tp45
a((lp46
I1
aI2
aI3
aI3
aI2
aI4
aI3
aI2
aI3
aI1
aI2
aI4
aI2
aS'2'
tp47
a((lp48
I5
aI1
aI3
aI2
aI4
aI4
aI3
aI2
aI3
aI2
aI3
aI5
aI3
aS'1'
tp49
a((lp50
I5
aI2
aI3
aI3
aI2
aI2
aI1
aI3
aI2
aI4
aI1
aI1
aI2
aS'3'
tp51
a((lp52
I4
aI2
aI4
aI2
aI3
aI3
aI3
aI2
aI2
aI2
aI3
aI5
aI4
aS'1'
tp53
a((lp54
I4
aI1
aI4
aI4
aI2
aI4
aI4
aI2
aI4
aI2
aI3
aI3
aI4
aS'1'
tp55
a((lp56
I2
aI1
aI4
aI4
aI1
aI3
aI3
aI3
aI1
aI1
aI2
aI4
aI1
aS'2'
tp57
a((lp58
I2
aI4
aI3
aI3
aI3
aI1
aI1
aI2
aI2
aI3
aI1
aI2
aI3
aS'3'
tp59
a((lp60
I3
aI3
aI3
aI3
aI2
aI1
aI1
aI2
aI1
aI2
aI2
aI1
aI1
aS'3'
tp61
a((lp62
I3
aI3
aI3
aI3
aI2
aI2
aI1
aI1
aI1
aI2
aI2
aI1
aI2
aS'3'
tp63
a((lp64
I4
aI1
aI4
aI3
aI3
aI4
aI4
aI3
aI3
aI3
aI3
aI3
aI4
aS'1'
tp65
a((lp66
I3
aI1
aI4
aI2
aI2
aI3
aI3
aI2
aI2
aI2
aI3
aI3
aI3
aS'1'
tp67
a((lp68
I4
aI2
aI4
aI2
aI2
aI4
aI4
aI1
aI3
aI2
aI2
aI5
aI3
aS'1'
tp69
a((lp70
I3
aI5
aI3
aI3
aI2
aI2
aI1
aI5
aI2
aI3
aI1
aI1
aI2
aS'3'
tp71
a((lp72
I2
aI1
aI3
aI3
aI2
aI5
aI2
aI1
aI2
aI1
aI3
aI4
aI3
aS'2'
tp73
a((lp74
I3
aI1
aI2
aI3
aI1
aI1
aI2
aI2
aI2
aI1
aI3
aI3
aI2
aS'2'
tp75
a((lp76
I3
aI4
aI3
aI3
aI1
aI2
aI1
aI4
aI1
aI3
aI1
aI2
aI2
aS'3'
tp77
a((lp78
I5
aI4
aI4
aI1
aI4
aI4
aI3
aI1
aI3
aI2
aI2
aI5
aI2
aS'1'
tp79
a((lp80
I4
aI2
aI3
aI3
aI2
aI3
aI3
aI2
aI3
aI2
aI3
aI5
aI3
aS'1'
tp81
a((lp82
I1
aI2
aI2
aI2
aI2
aI2
aI2
aI2
aI2
aI2
aI4
aI2
aI1
aS'2'
tp83
a((lp84
I4
aI4
aI3
aI4
aI1
aI1
aI1
aI4
aI2
aI3
aI2
aI1
aI1
aS'3'
tp85
a((lp86
I3
aI1
aI2
aI2
aI2
aI2
aI2
aI4
aI1
aI2
aI3
aI1
aI1
aS'2'
tp87
a((lp88
I4
aI1
aI3
aI2
aI3
aI3
aI3
aI1
aI2
aI2
aI2
aI4
aI3
aS'1'
tp89
a((lp90
I5
aI1
aI3
aI2
aI3
aI4
aI3
aI2
aI3
aI3
aI2
aI4
aI3
aS'1'
tp91
a((lp92
I3
aI2
aI5
aI3
aI3
aI4
aI3
aI3
aI3
aI2
aI3
aI4
aI2
aS'1'
tp93
a((lp94
I2
aI4
aI3
aI3
aI1
aI4
aI3
aI1
aI4
aI1
aI2
aI5
aI1
aS'2'
tp95
a((lp96
I2
aI1
aI3
aI3
aI1
aI5
aI3
aI1
aI3
aI2
aI4
aI3
aI1
aS'2'
tp97
a((lp98
I4
aI3
aI3
aI3
aI1
aI2
aI1
aI5
aI1
aI2
aI2
aI2
aI2
aS'3'
tp99
a((lp100
I4
aI2
aI3
aI3
aI2
aI1
aI1
aI3
aI1
aI2
aI1
aI3
aI2
aS'3'
tp101
a((lp102
I2
aI2
aI3
aI3
aI1
aI3
aI3
aI2
aI2
aI1
aI2
aI3
aI1
aS'2'
tp103
a((lp104
I4
aI1
aI3
aI3
aI3
aI4
aI3
aI1
aI4
aI3
aI3
aI4
aI4
aS'1'
tp105
a((lp106
I5
aI1
aI3
aI2
aI2
aI3
aI3
aI2
aI2
aI2
aI3
aI3
aI4
aS'1'
tp107
a((lp108
I2
aI1
aI2
aI2
aI4
aI2
aI2
aI3
aI4
aI1
aI3
aI2
aI2
aS'2'
tp109
a((lp110
I4
aI2
aI4
aI2
aI3
aI4
aI3
aI3
aI3
aI3
aI3
aI4
aI4
aS'1'
tp111
a((lp112
I5
aI2
aI3
aI2
aI3
aI4
aI4
aI2
aI3
aI3
aI3
aI3
aI5
aS'1'
tp113
a((lp114
I4
aI2
aI4
aI4
aI2
aI1
aI1
aI3
aI2
aI4
aI2
aI1
aI2
aS'3'
tp115
a((lp116
I2
aI1
aI2
aI2
aI1
aI3
aI3
aI2
aI3
aI1
aI4
aI3
aI1
aS'2'
tp117
a((lp118
I3
aI1
aI4
aI4
aI5
aI3
aI1
aI3
aI1
aI4
aI5
aI3
aS'2'
tp119
a((lp120
I4
aI5
aI3
aI3
aI1
aI1
aI1
aI3
aI1
aI2
aI1
aI1
aI1
aS'3'
tp121
a((lp122
I3
aI2
aI3
aI4
aI2
aI1
aI1
aI2
aI1
aI2
aI1
aI1
aI2
aS'3'
tp123
a((lp124
I4
aI1
aI4
aI4
aI1
aI4
aI3
aI1
aI3
aI1
aI4
aI4
aI1
aS'2'
tp125
a((lp126
I3
aI4
aI3
aI3
aI3
aI1
aI2
aI2
aI2
aI4
aI1
aI1
aI1
aS'3'
tp127
a((lp128
I2
aI1
aI4
aI3
aI2
aI2
aI2
aI4
aI1
aI1
aI4
aI2
aI1
aS'2'
tp129
a((lp130
I3
aI4
aI3
aI4
aI1
aI2
aI2
aI5
aI2
aI2
aI2
aI2
aI1
aS'2'
tp131
a((lp132
I2
aI3
aI3
aI2
aI1
aI3
aI3
aI2
aI3
aI1
aI3
aI4
aI1
aS'2'
tp133
a((lp134
I4
aI1
aI3
aI2
aI2
aI3
aI3
aI2
aI3
aI2
aI3
aI5
aI3
aS'1'
tp135
a((lp136
I4
aI1
aI4
aI4
aI2
aI3
aI1
aI4
aI3
aI5
aI1
aI1
aI2
aS'3'
tp137
a((lp138
I2
aI4
aI4
aI3
aI2
aI1
aI1
aI4
aI1
aI2
aI2
aI1
aI2
aS'3'
tp139
a((lp140
I2
aI2
aI4
aI3
aI4
aI2
aI1
aI1
aI2
aI1
aI2
aI2
aI2
aS'2'
tp141
a((lp142
I2
aI2
aI1
aI2
aI2
aI3
aI2
aI2
aI2
aI1
aI4
aI4
aI2
aS'2'
tp143
a((lp144
I4
aI2
aI3
aI3
aI2
aI1
aI1
aI3
aI1
aI4
aI1
aI1
aI2
aS'3'
tp145
a((lp146
I2
aI1
aI2
aI3
aI1
aI3
aI3
aI2
aI2
aI1
aI4
aI4
aI1
aS'2'
tp147
a((lp148
I4
aI1
aI3
aI2
aI2
aI3
aI3
aI2
aI3
aI2
aI3
aI3
aI4
aS'1'
tp149
a((lp150
I2
aI1
aI3
aI3
aI2
aI1
aI1
aI3
aI2
aI1
aI2
aI2
aI3
aS'2'
tp151
a((lp152
I4
aI3
aI4
aI4
aI3
aI1
aI2
aI1
aI2
aI4
aI1
aI1
aI1
aS'3'
tp153
a((lp154
I4
aI2
aI4
aI2
aI3
aI4
aI3
aI2
aI2
aI3
aI4
aI3
aI4
aS'1'
tp155
a((lp156
I2
aI1
aI2
aI3
aI2
aI3
aI2
aI3
aI3
aI1
aI2
aI4
aI1
aS'2'
tp157
a((lp158
I4
aI1
aI3
aI2
aI3
aI4
aI4
aI2
aI4
aI3
aI2
aI4
aI2
aS'1'
tp159
a((lp160
I3
aI2
aI3
aI3
aI1
aI3
aI3
aI2
aI3
aI2
aI3
aI4
aI2
aS'2'
tp161
a((lp162
I4
aI1
aI4
aI3
aI4
aI4
aI3
aI4
aI2
aI2
aI4
aI4
aI4
aS'1'
tp163
a((lp164
I3
aI3
aI3
aI3
aI1
aI1
aI1
aI3
aI1
aI4
aI1
aI1
aI2
aS'3'
tp165
a((lp166
I2
aI1
aI2
aI2
aI5
aI2
aI1
aI1
aI4
aI1
aI4
aI4
aI2
aS'2'
tp167
a((lp168
I5
aI3
aI3
aI2
aI2
aI4
aI3
aI2
aI3
aI2
aI3
aI4
aI3
aS'1'
tp169
a((lp170
I2
aI1
aI3
aI2
aI2
aI2
aI1
aI5
aI1
aI1
aI4
aI1
aI2
aS'2'
tp171
a((lp172
I4
aI2
aI4
aI2
aI2
aI4
aI3
aI2
aI2
aI2
aI2
aI4
aI4
aS'1'
tp173
a((lp174
I2
aI4
aI3
aI3
aI1
aI2
aI2
aI3
aI2
aI1
aI2
aI3
aI2
aS'2'
tp175
a((lp176
I5
aI2
aI3
aI2
aI2
aI3
aI3
aI2
aI3
aI2
aI3
aI5
aI4
aS'1'
tp177
a((lp178
I3
aI1
aI4
aI2
aI3
aI3
aI3
aI2
aI2
aI2
aI3
aI3
aI3
aS'1'
tp179
a((lp180
I3
aI1
aI2
aI3
aI2
aI1
aI1
aI4
aI2
aI3
aI1
aI1
aI2
aS'3'
tp181
a((lp182
I2
aI1
aI2
aI3
aI1
aI2
aI2
aI2
aI1
aI2
aI3
aI5
aI1
aS'2'
tp183
a((lp184
I2
aI5
aI4
aI4
aI2
aI2
aI1
aI5
aI2
aI2
aI2
aI1
aI1
aS'3'
tp185
a((lp186
I4
aI5
aI3
aI3
aI2
aI2
aI1
aI4
aI2
aI3
aI1
aI1
aI2
aS'3'
tp187
a((lp188
I2
aI1
aI4
aI4
aI1
aI2
aI2
aI3
aI2
aI1
aI4
aI3
aI2
aS'2'
tp189
a((lp190
I3
aI1
aI3
aI2
aI2
aI3
aI2
aI2
aI2
aI1
aI4
aI4
aI1
aS'2'
tp191
a((lp192
I4
aI3
aI4
aI4
aI2
aI1
aI1
aI4
aI1
aI2
aI2
aI2
aI1
aS'3'
tp193
a((lp194
I4
aI1
aI3
aI2
aI3
aI3
aI2
aI4
aI1
aI1
aI3
aI2
aI2
aS'2'
tp195
a((lp196
I5
aI1
aI3
aI2
aI3
aI5
aI4
aI2
aI3
aI4
aI4
aI3
aS'1'
tp197
a((lp198
I2
aI1
aI3
aI3
aI3
aI3
aI2
aI5
aI1
aI3
aI3
aI3
aS'2'
tp199
a((lp200
I3
aI1
aI4
aI2
aI2
aI3
aI3
aI2
aI2
aI2
aI3
aI5
aI3
aS'1'
tp201
a((lp202
I5
aI2
aI3
aI2
aI2
aI4
aI4
aI1
aI4
aI2
aI4
aI4
aI5
aS'1'
tp203
a((lp204
I3
aI2
aI3
aI3
aI2
aI2
aI1
aI5
aI1
aI3
aI2
aI1
aI2
aS'3'
tp205
a((lp206
I3
aI3
aI3
aI3
aI2
aI1
aI1
aI3
aI1
aI2
aI1
aI1
aI2
aS'3'
tp207
a((lp208
I1
aI1
aI4
aI3
aI2
aI4
aI3
aI2
aI4
aI1
aI2
aI4
aI2
aS'2'
tp209
a((lp210
I4
aI2
aI3
aI2
aI2
aI3
aI3
aI3
aI3
aI2
aI4
aI3
aI3
aS'1'
tp211
a((lp212
I3
aI4
aI4
aI3
aI2
aI3
aI3
aI2
aI3
aI2
aI3
aI5
aI2
aS'1'
tp213
a((lp214
I3
aI4
aI3
aI2
aI2
aI3
aI3
aI2
aI2
aI2
aI2
aI4
aI2
aS'1'
tp215
a((lp216
I4
aI1
aI3
aI4
aI1
aI2
aI2
aI2
aI1
aI2
aI3
aI3
aI1
aS'2'
tp217
a((lp218
I3
aI1
aI1
aI2
aI1
aI4
aI3
aI2
aI3
aI2
aI3
aI4
aI1
aS'2'
tp219
a((lp220
I3
aI2
aI2
aI2
aI3
aI4
aI3
aI2
aI3
aI2
aI2
aI4
aI3
aS'1'
tp221
a((lp222
I5
aI4
aI4
aI4
aI2
aI2
aI1
aI5
aI2
aI4
aI1
aI1
aI2
aS'3'
tp223
a((lp224
I4
aI4
aI3
aI3
aI2
aI2
aI1
aI4
aI2
aI4
aI1
aI1
aI1
aS'3'
tp225
a((lp226
I4
aI2
aI4
aI3
aI3
aI4
aI3
aI3
aI3
aI2
aI4
aI4
aI3
aS'1'
tp227
a((lp228
I3
aI2
aI5
aI4
aI3
aI3
aI3
aI4
aI3
aI1
aI3
aI4
aI2
aS'1'
tp229
a((lp230
I4
aI1
aI2
aI2
aI2
aI2
aI2
aI2
aI1
aI2
aI4
aI3
aI2
aS'2'
tp231
a((lp232
I1
aI2
aI3
aI2
aI2
aI4
aI3
aI1
aI2
aI1
aI3
aI4
aI1
aS'2'
tp233
a((lp234
I2
aI2
aI3
aI3
aI1
aI3
aI3
aI3
aI2
aI1
aI2
aI4
aI1
aS'2'
tp235
a((lp236
I3
aI1
aI2
aI2
aI2
aI3
aI3
aI2
aI2
aI2
aI3
aI3
aI3
aS'1'
tp237
a((lp238
I4
aI4
aI3
aI3
aI2
aI3
aI3
aI2
aI2
aI2
aI2
aI4
aI3
aS'1'
tp239
a((lp240
I2
aI2
aI3
aI3
aI1
aI2
aI2
aI4
aI2
aI1
aI3
aI2
aI1
aS'2'
tp241
a((lp242
I3
aI2
aI3
aI3
aI3
aI1
aI2
aI2
aI2
aI5
aI1
aI1
aI1
aS'3'
tp243
a((lp244
I4
aI1
aI3
aI3
aI2
aI4
aI4
aI1
aI3
aI3
aI3
aI3
aI5
aS'1'
tp245
a((lp246
I2
aI1
aI4
aI2
aI2
aI3
aI3
aI3
aI3
aI2
aI3
aI2
aI2
aS'2'
tp247
a((lp248
I5
aI2
aI3
aI3
aI2
aI4
aI3
aI2
aI4
aI3
aI3
aI3
aI3
aS'1'
tp249
a((lp250
I1
aI1
aI4
aI3
aI1
aI3
aI2
aI3
aI2
aI1
aI3
aI2
aI1
aS'2'
tp251
a((lp252
I1
aI2
aI3
aI3
aI1
aI2
aI2
aI4
aI2
aI1
aI3
aI3
aI2
aS'2'
tp253
a((lp254
I3
aI4
aI3
aI4
aI2
aI4
aI3
aI3
aI3
aI1
aI3
aI4
aI1
aS'2'
tp255
a((lp256
I4
aI2
aI4
aI3
aI3
aI3
aI3
aI2
aI2
aI2
aI3
aI3
aI3
aS'1'
tp257
a((lp258
I2
aI1
aI1
aI1
aI1
aI2
aI1
aI2
aI1
aI1
aI3
aI2
aI1
aS'2'
tp259
a((lp260
I2
aI1
aI2
aI3
aI1
aI3
aI2
aI3
aI2
aI1
aI2
aI3
aI1
aS'2'
tp261
a((lp262
I2
aI3
aI3
aI3
aI2
aI1
aI1
aI3
aI1
aI2
aI1
aI2
aI1
aS'3'
tp263
a((lp264
I2
aI1
aI3
aI2
aI1
aI2
aI1
aI5
aI2
aI2
aI2
aI1
aI2
aS'3'
tp265
a((lp266
I4
aI3
aI4
aI4
aI3
aI2
aI1
aI3
aI2
aI5
aI2
aI1
aI2
aS'3'
tp267
a((lp268
I3
aI1
aI1
aI2
aI1
aI2
aI2
aI2
aI2
aI2
aI3
aI3
aI1
aS'2'
tp269
a((lp270
I2
aI1
aI3
aI4
aI3
aI2
aI2
aI2
aI2
aI1
aI3
aI4
aI1
aS'2'
tp271
a((lp272
I2
aI1
aI3
aI3
aI1
aI4
aI3
aI3
aI3
aI2
aI1
aI3
aI1
aS'2'
tp273
a((lp274
I4
aI3
aI4
aI3
aI3
aI2
aI1
aI4
aI1
aI2
aI2
aI2
aI2
aS'3'
tp275
a((lp276
I4
aI2
aI3
aI2
aI2
aI3
aI3
aI2
aI3
aI2
aI3
aI3
aS'1'
tp277
a((lp278
I3
aI3
aI4
aI3
aI2
aI2
aI1
aI5
aI1
aI2
aI2
aI2
aI2
aS'3'
tp279
a((lp280
I4
aI1
aI4
aI2
aI2
aI3
aI3
aI1
aI3
aI2
aI4
aI4
aI4
aS'1'
tp281
a((lp282
I2
aI1
aI2
aI3
aI1
aI5
aI4
aI2
aI3
aI2
aI3
aI3
aI2
aS'2'
tp283
a((lp284
I3
aI3
aI3
aI3
aI2
aI1
aI1
aI3
aI2
aI2
aI1
aI1
aI2
aS'3'
tp285
a((lp286
I3
aI2
aI4
aI4
aI3
aI3
aI1
aI2
aI2
aI3
aI1
aI1
aI1
aS'3'
tp287
a((lp288
I5
aI1
aI4
aI4
aI2
aI4
aI2
aI4
aI4
aI5
aI1
aI2
aI2
aS'3'
tp289
a((lp290
I4
aI5
aI3
aI3
aI2
aI2
aI1
aI4
aI1
aI2
aI2
aI2
aI1
aS'3'
tp291
a((lp292
I3
aI1
aI3
aI2
aI2
aI3
aI2
aI2
aI2
aI2
aI3
aI3
aI4
aS'1'
tp293
a((lp294
I2
aI3
aI2
aI3
aI1
aI2
aI2
aI3
aI3
aI1
aI2
aI4
aI2
aS'2'
tp295
a((lp296
I3
aI2
aI4
aI2
aI2
aI4
aI4
aI2
aI2
aI3
aI3
aI3
aI4
aS'1'
tp297
a((lp298
I2
aI2
aI4
aI5
aI2
aI2
aI3
aI5
aI3
aI1
aI2
aI3
aI1
aS'2'
tp299
a((lp300
I3
aI1
aI2
aI1
aI2
aI4
aI4
aI1
aI4
aI3
aI3
aI4
aI4
aS'1'
tp301
a((lp302
I3
aI1
aI3
aI2
aI3
aI1
aI1
aI1
aI1
aI2
aI2
aI1
aI2
aS'3'
tp303
a((lp304
I2
aI4
aI3
aI3
aI1
aI3
aI1
aI4
aI1
aI3
aI1
aI1
aI1
aS'3'
tp305
a((lp306
I3
aI3
aI2
aI2
aI1
aI2
aI1
aI3
aI1
aI1
aI1
aI2
aI1
aS'2'
tp307
a((lp308
I4
aI1
aI3
aI2
aI2
aI4
aI4
aI1
aI3
aI3
aI2
aI4
aI3
aS'1'
tp309
a((lp310
I2
aI2
aI3
aI3
aI2
aI2
aI2
aI2
aI1
aI2
aI4
aI1
aS'2'
tp311
a((lp312
I3
aI2
aI3
aI3
aI3
aI2
aI1
aI4
aI2
aI4
aI1
aI1
aI3
aS'3'
tp313
a((lp314
I2
aI1
aI3
aI3
aI1
aI1
aI1
aI4
aI2
aI1
aI3
aI3
aI1
aS'2'
tp315
a((lp316
I2
aI1
aI2
aI3
aI1
aI3
aI2
aI2
aI2
aI1
aI3
aI5
aI2
aS'2'
tp317
a((lp318
I1
aI2
aI5
aI5
aI3
aI4
aI4
aI3
aI3
aI2
aI5
aI1
aS'2'
tp319
a((lp320
I5
aI2
aI4
aI2
aI3
aI5
aI4
aI2
aI3
aI3
aI2
aI4
aI5
aS'1'
tp321
a((lp322
I5
aI1
aI3
aI1
aI2
aI4
aI4
aI3
aI4
aI2
aI4
aI3
aI4
aS'1'
tp323
a((lp324
I2
aI3
aI3
aI2
aI1
aI4
aI3
aI4
aI4
aI1
aI4
aI3
aI1
aS'2'
tp325
a((lp326
I4
aI1
aI4
aI2
aI3
aI5
aI4
aI1
aI3
aI3
aI2
aI3
aI4
aS'1'
tp327
a((lp328
I2
aI3
aI4
aI5
aI2
aI2
aI1
aI5
aI2
aI3
aI1
aI1
aI3
aS'3'
tp329
a((lp330
I2
aI1
aI2
aI3
aI1
aI2
aI2
aI2
aI2
aI1
aI2
aI4
aI1
aS'2'
tp331
a((lp332
I1
aI1
aI3
aI3
aI1
aI3
aI2
aI4
aI3
aI1
aI3
aI1
aS'2'
tp333
a((lp334
I4
aI3
aI3
aI3
aI2
aI2
aI1
aI4
aI2
aI4
aI1
aI1
aI2
aS'3'
tp335
a((lp336
I3
aI5
aI3
aI3
aI1
aI3
aI3
aI2
aI3
aI1
aI2
aI4
aI1
aS'2'
tp337
a((lp338
I3
aI2
aI3
aI1
aI2
aI3
aI3
aI2
aI2
aI2
aI3
aI4
aI3
aS'1'
tp339
a((lp340
I2
aI1
aI3
aI4
aI2
aI2
aI2
aI3
aI2
aI1
aI4
aI2
aI1
aS'2'
tp341
a((lp342
I5
aI2
aI3
aI1
aI2
aI5
aI4
aI2
aI5
aI3
aI3
aI4
aI5
aS'1'
tp343
a((lp344
I2
aI1
aI3
aI3
aI1
aI2
aI2
aI3
aI2
aI1
aI3
aI4
aI1
aS'2'
tp345
a((lp346
I1
aI2
aI5
aI3
aI2
aI2
aI2
aI5
aI2
aI2
aI4
aI3
aI2
aS'2'
tp347
a((lp348
I3
aI2
aI3
aI3
aI1
aI1
aI1
aI4
aI1
aI4
aI1
aI1
aI1
aS'3'
tp349
a((lp350
I5
aI4
aI3
aI3
aI3
aI4
aI3
aI2
aI2
aI2
aI2
aI4
aI3
aS'1'
tp351
a((lp352
I4
aI3
aI4
aI2
aI3
aI3
aI3
aI1
aI2
aI2
aI2
aI4
aI3
aS'1'
tp353
a((lp354
I1
aI1
aI4
aI4
aI1
aI2
aI2
aI3
aI2
aI1
aI4
aI4
aI2
aS'2'
tp355
a((lp356
I3
aI3
aI4
aI3
aI2
aI1
aI1
aI4
aI1
aI2
aI2
aI2
aI2
aS'3'
tp357
a.