(lp1
((lp2
F12.296666666666667
aF1.4146666666666667
aF2.3573333333333335
aF24.826666666666664
aF76.13333333333334
aF2.333333333333333
aF1.6040000000000001
aF0.44800000000000001
aF1.4666666666666666
aF2.0613333333333332
aF1.1360000000000001
aF3.2719999999999998
aF651.86666666666667
aS'2'
tp3
a((lp4
F13.309999999999999
aF3.4386666666666663
aF2.3573333333333335
aF19.653333333333332
aF100.66666666666667
aF1.9466666666666668
aF0.97199999999999998
aF0.6246666666666667
aF1.8893333333333331
aF10.655999999999999
aF0.56199999999999994
aF1.6339999999999999
aF745.33333333333337
aS'3'
tp5
a((lp6
F13.056666666666667
aF3.1013333333333328
aF2.7313333333333336
aF24.826666666666664
aF106.80000000000001
aF2.333333333333333
aF0.65600000000000003
aF0.55400000000000005
aF0.83266666666666667
aF5.1866666666666665
aF0.97199999999999998
aF2.1799999999999997
aF651.86666666666667
aS'3'
tp7
a((lp8
F14.07
aF1.752
aF2.3573333333333335
aF17.066666666666666
aF131.33333333333334
aF3.1066666666666665
aF3.1839999999999997
aF0.27133333333333332
aF2.1006666666666667
aF5.968
aF1.1360000000000001
aF3.8180000000000001
aF838.79999999999995
aS'1'
tp9
a((lp10
F14.07
aF1.752
aF2.4820000000000002
aF14.48
aF112.93333333333334
aF3.8159999999999998
aF0.34200000000000003
aF1.8893333333333331
aF7.5306666666666668
aF1.054
aF3.2719999999999998
aF1212.6666666666667
aS'1'
tp11
a((lp12
F13.563333333333333
aF2.0893333333333333
aF2.7313333333333336
aF20.946666666666665
aF100.66666666666667
aF2.7199999999999998
aF2.8679999999999999
aF0.30666666666666664
aF1.6779999999999997
aF3.6239999999999997
aF1.1360000000000001
aF4
aF932.26666666666665
aS'1'
tp13
a((lp14
F12.803333333333333
aF1.752
aF2.3573333333333335
aF23.533333333333331
aF88.400000000000006
aF1.5600000000000001
aF1.9200000000000002
aF0.48333333333333334
aF1.6779999999999997
aF3.6239999999999997
aF0.89000000000000001
aF2.544
aF558.39999999999998
aS'2'
tp15
a((lp16
F11.536666666666665
aF3.7759999999999998
aF1.8586666666666667
aF19.653333333333332
aF112.93333333333334
aF3.2999999999999998
aF2.8679999999999999
aF0.27133333333333332
aF3.6239999999999997
aF0.80800000000000005
aF2.9079999999999999
aF651.86666666666667
aS'2'
tp17
a((lp18
F1.752
aF2.2326666666666668
aF14.48
aF100.66666666666667
aF2.9133333333333331
aF3.1839999999999997
aF0.30666666666666664
aF2.1006666666666667
aF5.968
aF1.1360000000000001
aF2.9079999999999999
aF1119.2
aS'1'
tp19
a((lp20
F12.043333333333333
aF1.0773333333333333
aF2.6066666666666665
aF18.359999999999999
aF94.533333333333331
aF2.333333333333333
aF2.2359999999999998
aF0.23600000000000002
aF2.5233333333333334
aF3.6239999999999997
aF0.80800000000000005
aF3.0899999999999999
aF558.39999999999998
aS'2'
tp21
a((lp22
F14.07
aF1.4146666666666667
aF2.3573333333333335
aF17.066666666666666
aF100.66666666666667
aF3.1066666666666665
aF3.1839999999999997
aF0.23600000000000002
aF1.8893333333333331
aF7.5306666666666668
aF1.054
aF3.6360000000000001
aF1119.2
aS'1'
tp23
a((lp24
F13.563333333333333
aF4.7880000000000003
aF2.980666666666667
aF26.119999999999997
aF112.93333333333334
aF2.1399999999999997
aF0.97199999999999998
aF0.27133333333333332
aF1.2553333333333332
aF9.0933333333333337
aF0.72599999999999998
aF1.998
aF651.86666666666667
aS'3'
tp25
a((lp26
F13.309999999999999
aF4.4506666666666668
aF2.3573333333333335
aF20.946666666666665
aF125.2
aF1.7533333333333334
aF0.97199999999999998
aF0.44800000000000001
aF1.4666666666666666
aF10.655999999999999
aF0.64400000000000002
aF1.6339999999999999
aF838.79999999999995
aS'3'
tp27
a((lp28
F12.549999999999999
aF2.7640000000000002
aF2.4820000000000002
aF22.239999999999998
aF100.66666666666667
aF2.7199999999999998
aF2.2359999999999998
aF0.34200000000000003
aF1.4666666666666666
aF2.8426666666666667
aF0.80800000000000005
aF3.4540000000000002
aF464.93333333333334
aS'2'
tp29
a((lp30
F13.309999999999999
aF2.4266666666666667
aF2.7313333333333336
aF19.653333333333332
aF106.80000000000001
aF2.9133333333333331
aF3.5
aF0.30666666666666664
aF2.9459999999999997
aF5.968
aF1.054
aF3.2719999999999998
aF1212.6666666666667
aS'1'
tp31
a((lp32
F14.323333333333332
aF2.0893333333333333
aF2.7313333333333336
aF20.946666666666665
aF125.2
aF2.9133333333333331
aF3.1839999999999997
aF0.34200000000000003
aF2.1006666666666667
aF6.7493333333333334
aF1.1360000000000001
aF2.726
aF1306.1333333333334
aS'1'
tp33
a((lp34
F14.07
aF1.752
aF2.3573333333333335
aF18.359999999999999
aF112.93333333333334
aF2.9133333333333331
aF3.8159999999999998
aF0.34200000000000003
aF2.1006666666666667
aF9.0933333333333337
aF1.1360000000000001
aF3.2719999999999998
aF1306.1333333333334
aS'1'
tp35
a((lp36
F12.549999999999999
aF1.752
aF2.3573333333333335
aF24.826666666666664
aF88.400000000000006
aF2.333333333333333
aF2.552
aF0.41266666666666668
aF2.1006666666666667
aF2.8426666666666667
aF0.97199999999999998
aF2.9079999999999999
aF371.4666666666667
aS'2'
tp37
a((lp38
F12.549999999999999
aF4.4506666666666668
aF2.7313333333333336
aF27.413333333333334
aF106.80000000000001
aF2.333333333333333
aF2.2359999999999998
aF0.44800000000000001
aF1.8893333333333331
aF2.8426666666666667
aF0.97199999999999998
aF3.2719999999999998
aF371.4666666666667
aS'2'
tp39
a((lp40
F13.563333333333333
aF4.1133333333333333
aF2.4820000000000002
aF23.533333333333331
aF106.80000000000001
aF1.9466666666666668
aF0.97199999999999998
aF0.44800000000000001
aF1.4666666666666666
aF7.5306666666666668
aF0.72599999999999998
aF1.6339999999999999
aF838.79999999999995
aS'3'
tp41
a((lp42
F12.803333333333333
aF1.752
aF2.3573333333333335
aF20.946666666666665
aF82.266666666666666
aF1.5600000000000001
aF1.6040000000000001
aF0.58933333333333338
aF1.6779999999999997
aF3.6239999999999997
aF0.97199999999999998
aF2.1799999999999997
aF558.39999999999998
aS'2'
tp43
a((lp44
F12.043333333333333
aF3.1013333333333328
aF2.2326666666666668
aF18.359999999999999
aF112.93333333333334
aF1.7533333333333334
aF1.6040000000000001
aF0.44800000000000001
aF1.0439999999999998
aF2.8426666666666667
aF0.97199999999999998
aF2.544
aF558.39999999999998
aS'2'
tp45
a((lp46
F11.536666666666665
aF2.4266666666666667
aF2.4820000000000002
aF20.946666666666665
aF100.66666666666667
aF2.9133333333333331
aF2.8679999999999999
aF0.34200000000000003
aF1.8893333333333331
aF3.6239999999999997
aF0.80800000000000005
aF3.4540000000000002
aF651.86666666666667
aS'2'
tp47
a((lp48
F14.323333333333332
aF1.752
aF2.4820000000000002
aF15.773333333333333
aF131.33333333333334
aF2.9133333333333331
aF3.1839999999999997
aF0.30666666666666664
aF2.3119999999999998
aF5.968
aF1.054
aF4
aF1119.2
aS'1'
tp49
a((lp50
F14.323333333333332
aF2.7640000000000002
aF2.4820000000000002
aF20.946666666666665
aF94.533333333333331
aF1.7533333333333334
aF0.97199999999999998
aF0.44800000000000001
aF1.2553333333333332
aF9.8746666666666663
aF0.64400000000000002
aF1.8160000000000001
aF745.33333333333337
aS'3'
tp51
a((lp52
F14.07
aF2.4266666666666667
aF2.7313333333333336
aF18.359999999999999
aF125.2
aF2.7199999999999998
aF2.552
aF0.34200000000000003
aF1.2553333333333332
aF5.1866666666666665
aF1.1360000000000001
aF3.6360000000000001
aF1306.1333333333334
aS'1'
tp53
a((lp54
F13.816666666666666
aF1.752
aF2.7313333333333336
aF23.533333333333331
aF106.80000000000001
aF3.1066666666666665
aF3.5
aF0.30666666666666664
aF2.5233333333333334
aF5.968
aF1.218
aF2.726
aF1306.1333333333334
aS'1'
tp55
a((lp56
F12.296666666666667
aF1.4146666666666667
aF2.6066666666666665
aF23.533333333333331
aF88.400000000000006
aF2.7199999999999998
aF2.552
aF0.44800000000000001
aF1.0439999999999998
aF3.6239999999999997
aF0.97199999999999998
aF3.2719999999999998
aF464.93333333333334
aS'2'
tp57
a((lp58
F12.296666666666667
aF4.1133333333333333
aF2.2326666666666668
aF19.653333333333332
aF112.93333333333334
aF1.5600000000000001
aF0.97199999999999998
aF0.30666666666666664
aF1.2553333333333332
aF8.3119999999999994
aF0.72599999999999998
aF2.1799999999999997
aF932.26666666666665
aS'3'
tp59
a((lp60
F13.056666666666667
aF3.1013333333333328
aF2.4820000000000002
aF20.946666666666665
aF106.80000000000001
aF1.3666666666666667
aF1.288
aF0.27133333333333332
aF0.83266666666666667
aF5.968
aF0.80800000000000005
aF1.452
aF558.39999999999998
aS'3'
tp61
a((lp62
F12.803333333333333
aF3.7759999999999998
aF2.4820000000000002
aF22.239999999999998
aF106.80000000000001
aF1.7533333333333334
aF1.288
aF0.20066666666666666
aF1.0439999999999998
aF5.1866666666666665
aF0.80800000000000005
aF1.452
aF651.86666666666667
aS'3'
tp63
a((lp64
F14.07
aF1.752
aF2.7313333333333336
aF20.946666666666665
aF119.06666666666666
aF3.1066666666666665
aF3.5
aF0.41266666666666668
aF1.8893333333333331
aF6.7493333333333334
aF1.1360000000000001
aF2.726
aF1212.6666666666667
aS'1'
tp65
a((lp66
F13.056666666666667
aF1.752
aF2.6066666666666665
aF18.359999999999999
aF100.66666666666667
aF2.5266666666666664
aF2.552
aF0.30666666666666664
aF1.4666666666666666
aF4.4053333333333331
aF1.1360000000000001
aF2.544
aF1119.2
aS'1'
tp67
a((lp68
F14.07
aF2.0893333333333333
aF2.6066666666666665
aF15.773333333333333
aF106.80000000000001
aF3.2999999999999998
aF3.8159999999999998
aF0.20066666666666666
aF1.8893333333333331
aF5.968
aF0.89000000000000001
aF3.6360000000000001
aF1119.2
aS'1'
tp69
a((lp70
F13.309999999999999
aF5.4626666666666663
aF2.3573333333333335
aF22.239999999999998
aF94.533333333333331
aF1.7533333333333334
aF0.65600000000000003
aF0.6246666666666667
aF1.6779999999999997
aF8.3119999999999994
aF0.64400000000000002
aF1.6339999999999999
aF745.33333333333337
aS'3'
tp71
a((lp72
F12.043333333333333
aF1.4146666666666667
aF2.3573333333333335
aF22.239999999999998
aF106.80000000000001
aF3.4933333333333332
aF2.2359999999999998
aF0.16533333333333333
aF1.6779999999999997
aF3.6239999999999997
aF1.054
aF3.2719999999999998
aF932.26666666666665
aS'2'
tp73
a((lp74
F12.803333333333333
aF1.4146666666666667
aF1.9833333333333334
aF19.653333333333332
aF88.400000000000006
aF1.5600000000000001
aF1.6040000000000001
aF0.30666666666666664
aF1.4666666666666666
aF2.8426666666666667
aF1.054
aF2.9079999999999999
aF651.86666666666667
aS'2'
tp75
a((lp76
F13.056666666666667
aF4.7880000000000003
aF2.4820000000000002
aF22.239999999999998
aF88.400000000000006
aF1.7533333333333334
aF0.65600000000000003
aF0.48333333333333334
aF1.0439999999999998
aF8.3119999999999994
aF0.56199999999999994
aF1.998
aF651.86666666666667
aS'3'
tp77
a((lp78
F14.323333333333332
aF4.1133333333333333
aF2.6066666666666665
aF14.48
aF131.33333333333334
aF3.1066666666666665
aF3.1839999999999997
aF0.20066666666666666
aF2.1006666666666667
aF5.1866666666666665
aF0.97199999999999998
aF3.6360000000000001
aF838.79999999999995
aS'1'
tp79
a((lp80
F13.563333333333333
aF2.0893333333333333
aF2.4820000000000002
aF20.946666666666665
aF100.66666666666667
aF2.7199999999999998
aF3.1839999999999997
aF0.27133333333333332
aF1.8893333333333331
aF5.1866666666666665
aF1.054
aF3.6360000000000001
aF932.26666666666665
aS'1'
tp81
a((lp82
F11.789999999999999
aF2.0893333333333333
aF1.9833333333333334
aF17.066666666666666
aF100.66666666666667
aF1.7533333333333334
aF1.6040000000000001
aF0.34200000000000003
aF1.2553333333333332
aF4.4053333333333331
aF1.3
aF2.1799999999999997
aF464.93333333333334
aS'2'
tp83
a((lp84
F13.816666666666666
aF4.4506666666666668
aF2.3573333333333335
aF23.533333333333331
aF88.400000000000006
aF1.3666666666666667
aF0.65600000000000003
aF0.55400000000000005
aF1.2553333333333332
aF6.7493333333333334
aF0.80800000000000005
aF1.8160000000000001
aF558.39999999999998
aS'3'
tp85
a((lp86
F12.803333333333333
aF1.4146666666666667
aF2.1080000000000001
aF17.066666666666666
aF100.66666666666667
aF2.1399999999999997
aF1.6040000000000001
aF0.55400000000000005
aF0.62133333333333329
aF5.968
aF1.054
aF1.6339999999999999
aF464.93333333333334
aS'2'
tp87
a((lp88
F13.816666666666666
aF1.752
aF2.3573333333333335
aF17.066666666666666
aF119.06666666666666
aF2.7199999999999998
aF3.1839999999999997
aF0.23600000000000002
aF1.6779999999999997
aF5.968
aF0.97199999999999998
aF3.2719999999999998
aF1119.2
aS'1'
tp89
a((lp90
F14.323333333333332
aF1.752
aF2.3573333333333335
aF17.066666666666666
aF119.06666666666666
aF3.2999999999999998
aF3.1839999999999997
aF0.27133333333333332
aF2.1006666666666667
aF6.7493333333333334
aF0.97199999999999998
aF3.4540000000000002
aF1025.7333333333333
aS'1'
tp91
a((lp92
F13.309999999999999
aF2.7640000000000002
aF2.980666666666667
aF22.239999999999998
aF119.06666666666666
aF2.9133333333333331
aF2.8679999999999999
aF0.41266666666666668
aF1.8893333333333331
aF4.4053333333333331
aF1.054
aF3.0899999999999999
aF745.33333333333337
aS'1'
tp93
a((lp94
F12.043333333333333
aF4.4506666666666668
aF2.4820000000000002
aF22.239999999999998
aF82.266666666666666
aF2.9133333333333331
aF3.1839999999999997
aF0.23600000000000002
aF2.9459999999999997
aF2.8426666666666667
aF0.80800000000000005
aF3.8180000000000001
aF464.93333333333334
aS'2'
tp95
a((lp96
F12.549999999999999
aF1.4146666666666667
aF2.2326666666666668
aF19.653333333333332
aF88.400000000000006
aF3.6866666666666665
aF3.1839999999999997
aF0.20066666666666666
aF1.8893333333333331
aF5.1866666666666665
aF1.3
aF2.9079999999999999
aF464.93333333333334
aS'2'
tp97
a((lp98
F13.563333333333333
aF3.7759999999999998
aF2.2326666666666668
aF19.653333333333332
aF88.400000000000006
aF1.7533333333333334
aF0.65600000000000003
aF0.58933333333333338
aF1.0439999999999998
aF5.968
aF0.89000000000000001
aF1.998
aF651.86666666666667
aS'3'
tp99
a((lp100
F13.563333333333333
aF2.7640000000000002
aF2.3573333333333335
aF20.946666666666665
aF94.533333333333331
aF1.5600000000000001
aF0.65600000000000003
aF0.37733333333333335
aF0.83266666666666667
aF5.968
aF0.72599999999999998
aF2.544
aF838.79999999999995
aS'3'
tp101
a((lp102
F12.549999999999999
aF2.7640000000000002
aF2.2326666666666668
aF22.239999999999998
aF88.400000000000006
aF2.7199999999999998
aF2.552
aF0.27133333333333332
aF1.2553333333333332
aF2.0613333333333332
aF0.97199999999999998
aF2.9079999999999999
aF371.4666666666667
aS'2'
tp103
a((lp104
F13.563333333333333
aF1.752
aF2.4820000000000002
aF20.946666666666665
aF119.06666666666666
aF3.1066666666666665
aF2.8679999999999999
aF0.20066666666666666
aF2.5233333333333334
aF6.7493333333333334
aF1.054
aF3.0899999999999999
aF1212.6666666666667
aS'1'
tp105
a((lp106
F14.323333333333332
aF1.752
aF2.3573333333333335
aF17.066666666666666
aF100.66666666666667
aF2.333333333333333
aF2.552
aF0.27133333333333332
aF1.6779999999999997
aF5.1866666666666665
aF1.218
aF2.9079999999999999
aF1306.1333333333334
aS'1'
tp107
a((lp108
F12.549999999999999
aF1.0773333333333333
aF1.9833333333333334
aF15.773333333333333
aF137.46666666666667
aF1.9466666666666668
aF1.9200000000000002
aF0.37733333333333335
aF2.9459999999999997
aF3.6239999999999997
aF1.1360000000000001
aF2.3620000000000001
aF838.79999999999995
aS'2'
tp109
a((lp110
F13.816666666666666
aF2.0893333333333333
aF2.7313333333333336
aF18.359999999999999
aF119.06666666666666
aF3.1066666666666665
aF2.8679999999999999
aF0.41266666666666668
aF1.8893333333333331
aF6.7493333333333334
aF1.1360000000000001
aF3.0899999999999999
aF1399.5999999999999
aS'1'
tp111
a((lp112
F14.323333333333332
aF2.0893333333333333
aF2.4820000000000002
aF15.773333333333333
aF112.93333333333334
aF3.2999999999999998
aF3.5
aF0.34200000000000003
aF2.1006666666666667
aF7.5306666666666668
aF1.054
aF2.9079999999999999
aF1493.0666666666666
aS'1'
tp113
a((lp114
F13.816666666666666
aF2.7640000000000002
aF2.7313333333333336
aF24.826666666666664
aF106.80000000000001
aF1.5600000000000001
aF0.97199999999999998
aF0.41266666666666668
aF1.6779999999999997
aF9.0933333333333337
aF0.80800000000000005
aF1.8160000000000001
aF838.79999999999995
aS'3'
tp115
a((lp116
F12.296666666666667
aF1.4146666666666667
aF1.9833333333333334
aF17.066666666666666
aF88.400000000000006
aF2.7199999999999998
aF2.552
aF0.30666666666666664
aF1.8893333333333331
aF3.6239999999999997
aF1.3
aF2.9079999999999999
aF464.93333333333334
aS'2'
tp117
a((lp118
F13.056666666666667
aF1.752
aF2.6066666666666665
aF143.60000000000002
aF3.4933333333333332
aF3.1839999999999997
aF0.23600000000000002
aF2.1006666666666667
aF3.6239999999999997
aF1.3820000000000001
aF3.6360000000000001
aF1025.7333333333333
aS'2'
tp119
a((lp120
F14.07
aF5.1253333333333337
aF2.2326666666666668
aF20.946666666666665
aF82.266666666666666
aF1.1733333333333333
aF0.65600000000000003
aF0.41266666666666668
aF0.83266666666666667
aF5.1866666666666665
aF0.64400000000000002
aF1.452
aF464.93333333333334
aS'3'
tp121
a((lp122
F13.056666666666667
aF2.4266666666666667
aF2.4820000000000002
aF24.826666666666664
aF100.66666666666667
aF1.1733333333333333
aF1.288
aF0.27133333333333332
aF0.83266666666666667
aF5.968
aF0.72599999999999998
aF1.452
aF651.86666666666667
aS'3'
tp123
a((lp124
F14.07
aF1.752
aF2.7313333333333336
aF26.119999999999997
aF88.400000000000006
aF3.1066666666666665
aF2.8679999999999999
aF0.23600000000000002
aF1.8893333333333331
aF3.6239999999999997
aF1.3820000000000001
aF3.2719999999999998
aF464.93333333333334
aS'2'
tp125
a((lp126
F13.309999999999999
aF4.1133333333333333
aF2.4820000000000002
aF22.239999999999998
aF119.06666666666666
aF1.5600000000000001
aF1.6040000000000001
aF0.34200000000000003
aF1.2553333333333332
aF9.8746666666666663
aF0.64400000000000002
aF1.452
aF558.39999999999998
aS'3'
tp127
a((lp128
F12.296666666666667
aF1.752
aF2.6066666666666665
aF19.653333333333332
aF106.80000000000001
aF1.9466666666666668
aF1.9200000000000002
aF0.48333333333333334
aF1.0439999999999998
aF3.6239999999999997
aF1.464
aF2.3620000000000001
aF371.4666666666667
aS'2'
tp129
a((lp130
F13.056666666666667
aF4.1133333333333333
aF2.3573333333333335
aF23.533333333333331
aF88.400000000000006
aF1.7533333333333334
aF1.6040000000000001
aF0.6246666666666667
aF1.6779999999999997
aF5.1866666666666665
aF0.89000000000000001
aF2.1799999999999997
aF558.39999999999998
aS'2'
tp131
a((lp132
F12.296666666666667
aF3.1013333333333328
aF2.2326666666666668
aF18.359999999999999
aF88.400000000000006
aF2.5266666666666664
aF2.552
aF0.27133333333333332
aF2.1006666666666667
aF2.8426666666666667
aF1.218
aF3.4540000000000002
aF371.4666666666667
aS'2'
tp133
a((lp134
F14.07
aF1.752
aF2.2326666666666668
aF17.066666666666666
aF100.66666666666667
aF2.7199999999999998
aF2.552
aF0.27133333333333332
aF2.1006666666666667
aF5.1866666666666665
aF1.054
aF3.6360000000000001
aF1119.2
aS'1'
tp135
a((lp136
F13.563333333333333
aF1.752
aF2.7313333333333336
aF23.533333333333331
aF94.533333333333331
aF2.7199999999999998
aF1.288
aF0.55400000000000005
aF2.3119999999999998
aF12.218666666666666
aF0.64400000000000002
aF1.8160000000000001
aF651.86666666666667
aS'3'
tp137
a((lp138
F12.296666666666667
aF4.7880000000000003
aF2.6066666666666665
aF22.239999999999998
aF94.533333333333331
aF1.5600000000000001
aF0.65600000000000003
aF0.55400000000000005
aF0.83266666666666667
aF4.4053333333333331
aF0.80800000000000005
aF1.452
aF745.33333333333337
aS'3'
tp139
a((lp140
F12.043333333333333
aF2.4266666666666667
aF2.8559999999999999
aF22.239999999999998
aF137.46666666666667
aF1.7533333333333334
aF1.288
aF0.16533333333333333
aF1.6779999999999997
aF2.8426666666666667
aF0.97199999999999998
aF2.3620000000000001
aF651.86666666666667
aS'2'
tp141
a((lp142
F12.296666666666667
aF2.0893333333333333
aF1.734
aF18.359999999999999
aF100.66666666666667
aF2.333333333333333
aF2.2359999999999998
aF0.27133333333333332
aF1.4666666666666666
aF3.6239999999999997
aF1.3
aF3.0899999999999999
aF745.33333333333337
aS'2'
tp143
a((lp144
F13.816666666666666
aF2.7640000000000002
aF2.3573333333333335
aF22.239999999999998
aF94.533333333333331
aF1.3666666666666667
aF0.97199999999999998
aF0.41266666666666668
aF1.0439999999999998
aF9.8746666666666663
aF0.72599999999999998
aF1.8160000000000001
aF651.86666666666667
aS'3'
tp145
a((lp146
F12.043333333333333
aF1.0773333333333333
aF2.1080000000000001
aF19.653333333333332
aF88.400000000000006
aF2.5266666666666664
aF2.552
aF0.30666666666666664
aF1.4666666666666666
aF2.8426666666666667
aF1.3820000000000001
aF3.2719999999999998
aF371.4666666666667
aS'2'
tp147
a((lp148
F13.816666666666666
aF1.752
aF2.4820000000000002
aF17.066666666666666
aF94.533333333333331
aF2.7199999999999998
aF2.8679999999999999
aF0.30666666666666664
aF1.8893333333333331
aF5.968
aF1.218
aF2.9079999999999999
aF1399.5999999999999
aS'1'
tp149
a((lp150
F12.296666666666667
aF1.752
aF2.2326666666666668
aF20.946666666666665
aF106.80000000000001
aF1.1733333333333333
aF1.288
aF0.37733333333333335
aF1.4666666666666666
aF3.6239999999999997
aF0.97199999999999998
aF1.998
aF932.26666666666665
aS'2'
tp151
a((lp152
F13.563333333333333
aF3.4386666666666663
aF2.7313333333333336
aF24.826666666666664
aF125.2
aF1.5600000000000001
aF1.6040000000000001
aF0.23600000000000002
aF1.2553333333333332
aF9.0933333333333337
aF0.64400000000000002
aF1.452
aF558.39999999999998
aS'3'
tp153
a((lp154
F13.816666666666666
aF2.0893333333333333
aF2.7313333333333336
aF18.359999999999999
aF112.93333333333334
aF2.9133333333333331
aF3.1839999999999997
aF0.30666666666666664
aF1.4666666666666666
aF7.5306666666666668
aF1.3
aF2.9079999999999999
aF1399.5999999999999
aS'1'
tp155
a((lp156
F12.296666666666667
aF1.4146666666666667
aF1.9833333333333334
aF19.653333333333332
aF94.533333333333331
aF2.5266666666666664
aF2.2359999999999998
aF0.41266666666666668
aF2.1006666666666667
aF2.8426666666666667
aF0.89000000000000001
aF3.0899999999999999
aF371.4666666666667
aS'2'
tp157
a((lp158
F13.563333333333333
aF1.752
aF2.3573333333333335
aF17.066666666666666
aF119.06666666666666
aF3.2999999999999998
aF3.5
aF0.34200000000000003
aF2.5233333333333334
aF6.7493333333333334
aF0.97199999999999998
aF3.4540000000000002
aF838.79999999999995
aS'1'
tp159
a((lp160
F12.803333333333333
aF2.0893333333333333
aF2.2326666666666668
aF19.653333333333332
aF88.400000000000006
aF2.333333333333333
aF2.552
aF0.27133333333333332
aF1.8893333333333331
aF4.4053333333333331
aF1.218
aF3.2719999999999998
aF745.33333333333337
aS'2'
tp161
a((lp162
F13.816666666666666
aF1.752
aF2.7313333333333336
aF19.653333333333332
aF137.46666666666667
aF3.1066666666666665
aF2.8679999999999999
aF0.51866666666666661
aF1.4666666666666666
aF5.968
aF1.3
aF3.0899999999999999
aF1306.1333333333334
aS'1'
tp163
a((lp164
F13.056666666666667
aF3.4386666666666663
aF2.3573333333333335
aF19.653333333333332
aF88.400000000000006
aF1.5600000000000001
aF0.97199999999999998
aF0.41266666666666668
aF1.0439999999999998
aF10.655999999999999
aF0.72599999999999998
aF1.8160000000000001
aF745.33333333333337
aS'3'
tp165
a((lp166
F12.296666666666667
aF1.4146666666666667
aF1.8586666666666667
aF17.066666666666666
aF155.86666666666667
aF1.9466666666666668
aF1.288
aF0.16533333333333333
aF2.5233333333333334
aF3.6239999999999997
aF1.3
aF3.0899999999999999
aF745.33333333333337
aS'2'
tp167
a((lp168
F14.576666666666666
aF3.7759999999999998
aF2.3573333333333335
aF17.066666666666666
aF106.80000000000001
aF3.2999999999999998
aF3.1839999999999997
aF0.27133333333333332
aF2.3119999999999998
aF5.1866666666666665
aF1.054
aF3.4540000000000002
aF1119.2
aS'1'
tp169
a((lp170
F12.549999999999999
aF1.4146666666666667
aF2.3573333333333335
aF17.066666666666666
aF106.80000000000001
aF2.1399999999999997
aF1.288
aF0.66000000000000003
aF0.62133333333333329
aF3.6239999999999997
aF1.3
aF1.8160000000000001
aF745.33333333333337
aS'2'
tp171
a((lp172
F13.563333333333333
aF2.0893333333333333
aF2.7313333333333336
aF17.066666666666666
aF94.533333333333331
aF2.9133333333333331
aF3.1839999999999997
aF0.34200000000000003
aF1.4666666666666666
aF5.1866666666666665
aF0.97199999999999998
aF3.2719999999999998
aF1212.6666666666667
aS'1'
tp173
a((lp174
F12.043333333333333
aF4.4506666666666668
aF2.4820000000000002
aF22.239999999999998
aF82.266666666666666
aF2.1399999999999997
aF1.9200000000000002
aF0.44800000000000001
aF1.4666666666666666
aF2.8426666666666667
aF0.80800000000000005
aF2.726
aF651.86666666666667
aS'2'
tp175
a((lp176
F14.576666666666666
aF2.0893333333333333
aF2.4820000000000002
aF15.773333333333333
aF100.66666666666667
aF2.5266666666666664
aF2.552
aF0.30666666666666664
aF2.1006666666666667
aF5.968
aF1.054
aF3.6360000000000001
aF1306.1333333333334
aS'1'
tp177
a((lp178
F13.309999999999999
aF1.752
aF2.8559999999999999
aF15.773333333333333
aF112.93333333333334
aF2.7199999999999998
aF2.8679999999999999
aF0.34200000000000003
aF1.4666666666666666
aF5.1866666666666665
aF1.1360000000000001
aF2.9079999999999999
aF932.26666666666665
aS'1'
tp179
a((lp180
F12.803333333333333
aF1.4146666666666667
aF2.1080000000000001
aF20.946666666666665
aF106.80000000000001
aF1.5600000000000001
aF0.65600000000000003
aF0.55400000000000005
aF1.4666666666666666
aF8.3119999999999994
aF0.64400000000000002
aF1.6339999999999999
aF651.86666666666667
aS'3'
tp181
a((lp182
F12.549999999999999
aF1.4146666666666667
aF1.9833333333333334
aF19.653333333333332
aF82.266666666666666
aF2.1399999999999997
aF2.2359999999999998
aF0.27133333333333332
aF1.0439999999999998
aF5.1866666666666665
aF1.1360000000000001
aF3.6360000000000001
aF558.39999999999998
aS'2'
tp183
a((lp184
F12.549999999999999
aF5.7999999999999998
aF2.7313333333333336
aF26.119999999999997
aF100.66666666666667
aF1.9466666666666668
aF0.65600000000000003
aF0.66000000000000003
aF1.2553333333333332
aF5.1866666666666665
aF0.89000000000000001
aF1.8160000000000001
aF558.39999999999998
aS'3'
tp185
a((lp186
F13.816666666666666
aF5.7999999999999998
aF2.4820000000000002
aF20.946666666666665
aF100.66666666666667
aF1.7533333333333334
aF0.65600000000000003
aF0.55400000000000005
aF1.2553333333333332
aF8.3119999999999994
aF0.64400000000000002
aF1.8160000000000001
aF745.33333333333337
aS'3'
tp187
a((lp188
F12.296666666666667
aF1.4146666666666667
aF2.6066666666666665
aF24.826666666666664
aF82.266666666666666
aF2.1399999999999997
aF1.6040000000000001
aF0.41266666666666668
aF1.4666666666666666
aF2.8426666666666667
aF1.3820000000000001
aF2.726
aF651.86666666666667
aS'2'
tp189
a((lp190
F12.803333333333333
aF1.0773333333333333
aF2.3573333333333335
aF18.359999999999999
aF100.66666666666667
aF2.333333333333333
aF2.2359999999999998
aF0.30666666666666664
aF1.4666666666666666
aF2.8426666666666667
aF1.3
aF3.2719999999999998
aF464.93333333333334
aS'2'
tp191
a((lp192
F13.563333333333333
aF3.4386666666666663
aF2.7313333333333336
aF23.533333333333331
aF100.66666666666667
aF1.5600000000000001
aF0.65600000000000003
aF0.51866666666666661
aF0.62133333333333329
aF4.4053333333333331
aF0.97199999999999998
aF2.1799999999999997
aF558.39999999999998
aS'3'
tp193
a((lp194
F13.563333333333333
aF1.0773333333333333
aF2.4820000000000002
aF17.066666666666666
aF112.93333333333334
aF2.7199999999999998
aF1.6040000000000001
aF0.55400000000000005
aF0.62133333333333329
aF3.6239999999999997
aF1.054
aF1.998
aF838.79999999999995
aS'2'
tp195
a((lp196
F14.323333333333332
aF1.752
aF2.4820000000000002
aF17.066666666666666
aF112.93333333333334
aF3.4933333333333332
aF4.1319999999999997
aF0.34200000000000003
aF1.8893333333333331
aF9.0933333333333337
aF1.3
aF2.9079999999999999
aS'1'
tp197
a((lp198
F12.549999999999999
aF1.752
aF2.2326666666666668
aF19.653333333333332
aF2.5266666666666664
aF2.552
aF0.34200000000000003
aF3.3686666666666665
aF2.8426666666666667
aF1.218
aF2.726
aF1025.7333333333333
aS'2'
tp199
a((lp200
F13.056666666666667
aF1.752
aF2.6066666666666665
aF18.359999999999999
aF100.66666666666667
aF2.5266666666666664
aF2.552
aF0.27133333333333332
aF1.4666666666666666
aF4.4053333333333331
aF1.1360000000000001
aF3.6360000000000001
aF1025.7333333333333
aS'1'
tp201
a((lp202
F14.323333333333332
aF2.4266666666666667
aF2.3573333333333335
aF18.359999999999999
aF106.80000000000001
aF3.1066666666666665
aF3.5
aF0.23600000000000002
aF2.5233333333333334
aF5.968
aF1.3
aF3.2719999999999998
aF1586.5333333333333
aS'1'
tp203
a((lp204
F12.803333333333333
aF2.7640000000000002
aF2.2326666666666668
aF19.653333333333332
aF94.533333333333331
aF1.7533333333333334
aF0.97199999999999998
aF0.66000000000000003
aF1.0439999999999998
aF7.5306666666666668
aF0.80800000000000005
aF1.6339999999999999
aF745.33333333333337
aS'3'
tp205
a((lp206
F13.056666666666667
aF3.7759999999999998
aF2.3573333333333335
aF19.653333333333332
aF106.80000000000001
aF1.5600000000000001
aF0.97199999999999998
aF0.41266666666666668
aF1.0439999999999998
aF5.968
aF0.72599999999999998
aF1.8160000000000001
aF745.33333333333337
aS'3'
tp207
a((lp208
F11.789999999999999
aF1.4146666666666667
aF2.7313333333333336
aF20.946666666666665
aF94.533333333333331
aF2.9133333333333331
aF3.1839999999999997
aF0.30666666666666664
aF2.5233333333333334
aF2.8426666666666667
aF0.97199999999999998
aF3.2719999999999998
aF745.33333333333337
aS'2'
tp209
a((lp210
F13.816666666666666
aF2.0893333333333333
aF2.4820000000000002
aF18.359999999999999
aF106.80000000000001
aF2.5266666666666664
aF2.8679999999999999
aF0.44800000000000001
aF2.1006666666666667
aF4.4053333333333331
aF1.3
aF2.9079999999999999
aF1025.7333333333333
aS'1'
tp211
a((lp212
F13.056666666666667
aF4.1133333333333333
aF2.7313333333333336
aF19.653333333333332
aF106.80000000000001
aF2.5266666666666664
aF2.552
aF0.27133333333333332
aF2.1006666666666667
aF5.1866666666666665
aF1.054
aF3.6360000000000001
aF838.79999999999995
aS'1'
tp213
a((lp214
F13.309999999999999
aF4.1133333333333333
aF2.3573333333333335
aF18.359999999999999
aF106.80000000000001
aF2.7199999999999998
aF2.8679999999999999
aF0.34200000000000003
aF1.6779999999999997
aF4.4053333333333331
aF0.89000000000000001
aF3.0899999999999999
aF745.33333333333337
aS'1'
tp215
a((lp216
F13.563333333333333
aF1.752
aF2.3573333333333335
aF24.826666666666664
aF88.400000000000006
aF1.9466666666666668
aF1.9200000000000002
aF0.27133333333333332
aF1.0439999999999998
aF4.4053333333333331
aF1.054
aF2.9079999999999999
aF558.39999999999998
aS'2'
tp217
a((lp218
F13.309999999999999
aF1.0773333333333333
aF1.734
aF15.773333333333333
aF82.266666666666666
aF3.1066666666666665
aF3.1839999999999997
aF0.27133333333333332
aF2.3119999999999998
aF5.968
aF1.1360000000000001
aF3.2719999999999998
aF558.39999999999998
aS'2'
tp219
a((lp220
F13.056666666666667
aF2.0893333333333333
aF2.1080000000000001
aF17.066666666666666
aF112.93333333333334
aF3.1066666666666665
aF3.1839999999999997
aF0.30666666666666664
aF2.1006666666666667
aF5.1866666666666665
aF0.89000000000000001
aF3.4540000000000002
aF932.26666666666665
aS'1'
tp221
a((lp222
F14.323333333333332
aF4.1133333333333333
aF2.8559999999999999
aF24.826666666666664
aF100.66666666666667
aF2.1399999999999997
aF0.97199999999999998
aF0.58933333333333338
aF1.4666666666666666
aF9.8746666666666663
aF0.64400000000000002
aF1.6339999999999999
aF651.86666666666667
aS'3'
tp223
a((lp224
F14.07
aF4.4506666666666668
aF2.4820000000000002
aF19.653333333333332
aF94.533333333333331
aF1.9466666666666668
aF0.97199999999999998
aF0.48333333333333334
aF1.6779999999999997
aF9.0933333333333337
aF0.64400000000000002
aF1.8160000000000001
aF558.39999999999998
aS'3'
tp225
a((lp226
F14.07
aF2.0893333333333333
aF2.8559999999999999
aF19.653333333333332
aF112.93333333333334
aF3.1066666666666665
aF3.1839999999999997
aF0.37733333333333335
aF1.8893333333333331
aF5.1866666666666665
aF1.3
aF3.4540000000000002
aF932.26666666666665
aS'1'
tp227
a((lp228
F13.056666666666667
aF2.0893333333333333
aF3.23
aF26.119999999999997
aF125.2
aF2.7199999999999998
aF2.8679999999999999
aF0.48333333333333334
aF2.1006666666666667
aF3.6239999999999997
aF1.1360000000000001
aF3.2719999999999998
aF838.79999999999995
aS'1'
tp229
a((lp230
F13.816666666666666
aF1.4146666666666667
aF1.9833333333333334
aF18.359999999999999
aF94.533333333333331
aF2.1399999999999997
aF1.9200000000000002
aF0.34200000000000003
aF0.83266666666666667
aF4.4053333333333331
aF1.3
aF2.544
aF651.86666666666667
aS'2'
tp231
a((lp232
F11.789999999999999
aF2.0893333333333333
aF2.3573333333333335
aF18.359999999999999
aF100.66666666666667
aF3.1066666666666665
aF2.552
aF0.20066666666666666
aF1.4666666666666666
aF3.6239999999999997
aF1.218
aF3.0899999999999999
aF371.4666666666667
aS'2'
tp233
a((lp234
F12.296666666666667
aF2.4266666666666667
aF2.2326666666666668
aF22.239999999999998
aF88.400000000000006
aF2.7199999999999998
aF2.8679999999999999
aF0.37733333333333335
aF1.4666666666666666
aF2.8426666666666667
aF0.89000000000000001
aF3.4540000000000002
aF464.93333333333334
aS'2'
tp235
a((lp236
F13.309999999999999
aF1.752
aF2.1080000000000001
aF15.773333333333333
aF100.66666666666667
aF2.5266666666666664
aF2.8679999999999999
aF0.30666666666666664
aF1.4666666666666666
aF4.4053333333333331
aF1.218
aF2.726
aF1025.7333333333333
aS'1'
tp237
a((lp238
F13.563333333333333
aF4.1133333333333333
aF2.2326666666666668
aF19.653333333333332
aF94.533333333333331
aF2.5266666666666664
aF2.8679999999999999
aF0.27133333333333332
aF1.6779999999999997
aF4.4053333333333331
aF0.97199999999999998
aF3.0899999999999999
aF1119.2
aS'1'
tp239
a((lp240
F12.296666666666667
aF2.0893333333333333
aF2.3573333333333335
aF19.653333333333332
aF82.266666666666666
aF1.7533333333333334
aF1.6040000000000001
aF0.55400000000000005
aF1.6779999999999997
aF2.8426666666666667
aF1.1360000000000001
aF2.3620000000000001
aF558.39999999999998
aS'2'
tp241
a((lp242
F12.803333333333333
aF2.7640000000000002
aF2.4820000000000002
aF22.239999999999998
aF112.93333333333334
aF1.5600000000000001
aF1.6040000000000001
aF0.27133333333333332
aF1.4666666666666666
aF11.437333333333333
aF0.56199999999999994
aF1.6339999999999999
aF558.39999999999998
aS'3'
tp243
a((lp244
F13.816666666666666
aF1.752
aF2.4820000000000002
aF19.653333333333332
aF106.80000000000001
aF2.9133333333333331
aF3.5
aF0.23600000000000002
aF2.1006666666666667
aF7.5306666666666668
aF1.1360000000000001
aF2.9079999999999999
aF1586.5333333333333
aS'1'
tp245
a((lp246
F12.549999999999999
aF1.4146666666666667
aF2.6066666666666665
aF18.359999999999999
aF100.66666666666667
aF2.5266666666666664
aF2.8679999999999999
aF0.37733333333333335
aF2.1006666666666667
aF5.1866666666666665
aF1.218
aF2.3620000000000001
aF745.33333333333337
aS'2'
tp247
a((lp248
F14.323333333333332
aF2.0893333333333333
aF2.4820000000000002
aF19.653333333333332
aF106.80000000000001
aF2.9133333333333331
aF3.1839999999999997
aF0.34200000000000003
aF2.5233333333333334
aF6.7493333333333334
aF1.1360000000000001
aF2.9079999999999999
aF1119.2
aS'1'
tp249
a((lp250
F11.536666666666665
aF1.0773333333333333
aF2.6066666666666665
aF22.239999999999998
aF88.400000000000006
aF2.5266666666666664
aF2.2359999999999998
aF0.44800000000000001
aF1.4666666666666666
aF3.6239999999999997
aF1.1360000000000001
aF2.3620000000000001
aF464.93333333333334
aS'2'
tp251
a((lp252
F11.789999999999999
aF2.0893333333333333
aF2.4820000000000002
aF22.239999999999998
aF88.400000000000006
aF2.1399999999999997
aF1.9200000000000002
aF0.48333333333333334
aF1.4666666666666666
aF2.8426666666666667
aF1.054
aF2.9079999999999999
aF745.33333333333337
aS'2'
tp253
a((lp254
F12.803333333333333
aF4.1133333333333333
aF2.4820000000000002
aF23.533333333333331
aF106.80000000000001
aF2.9133333333333331
aF2.552
aF0.44800000000000001
aF2.1006666666666667
aF2.8426666666666667
aF1.218
aF3.2719999999999998
aF464.93333333333334
aS'2'
tp255
a((lp256
F13.563333333333333
aF2.0893333333333333
aF2.7313333333333336
aF19.653333333333332
aF112.93333333333334
aF2.5266666666666664
aF2.552
aF0.30666666666666664
aF1.6779999999999997
aF4.4053333333333331
aF1.1360000000000001
aF2.9079999999999999
aF1119.2
aS'1'
tp257
a((lp258
F12.549999999999999
aF1.0773333333333333
aF1.4846666666666668
aF11.893333333333333
aF88.400000000000006
aF2.1399999999999997
aF0.65600000000000003
aF0.30666666666666664
aF0.62133333333333329
aF2.0613333333333332
aF1.054
aF1.998
aF558.39999999999998
aS'2'
tp259
a((lp260
F12.043333333333333
aF1.752
aF1.9833333333333334
aF19.653333333333332
aF88.400000000000006
aF2.5266666666666664
aF1.9200000000000002
aF0.37733333333333335
aF1.4666666666666666
aF2.0613333333333332
aF0.97199999999999998
aF2.544
aF464.93333333333334
aS'2'
tp261
a((lp262
F12.296666666666667
aF3.1013333333333328
aF2.3573333333333335
aF19.653333333333332
aF100.66666666666667
aF1.3666666666666667
aF0.65600000000000003
aF0.41266666666666668
aF0.83266666666666667
aF5.968
aF0.72599999999999998
aF1.998
aF558.39999999999998
aS'3'
tp263
a((lp264
F12.549999999999999
aF1.4146666666666667
aF2.3573333333333335
aF18.359999999999999
aF88.400000000000006
aF2.1399999999999997
aF0.65600000000000003
aF0.6246666666666667
aF1.2553333333333332
aF5.968
aF0.80800000000000005
aF1.6339999999999999
aF651.86666666666667
aS'3'
tp265
a((lp266
F13.563333333333333
aF3.7759999999999998
aF2.6066666666666665
aF23.533333333333331
aF112.93333333333334
aF1.7533333333333334
aF0.97199999999999998
aF0.44800000000000001
aF1.4666666666666666
aF11.437333333333333
aF0.89000000000000001
aF1.6339999999999999
aF745.33333333333337
aS'3'
tp267
a((lp268
F13.056666666666667
aF1.0773333333333333
aF1.734
aF17.066666666666666
aF88.400000000000006
aF2.1399999999999997
aF2.2359999999999998
aF0.27133333333333332
aF1.4666666666666666
aF5.1866666666666665
aF1.218
aF2.544
aF464.93333333333334
aS'2'
tp269
a((lp270
F12.549999999999999
aF1.752
aF2.2326666666666668
aF23.533333333333331
aF112.93333333333334
aF2.1399999999999997
aF2.2359999999999998
aF0.34200000000000003
aF1.6779999999999997
aF2.0613333333333332
aF1.1360000000000001
aF3.0899999999999999
aF371.4666666666667
aS'2'
tp271
a((lp272
F12.549999999999999
aF1.752
aF2.3573333333333335
aF22.239999999999998
aF88.400000000000006
aF2.9133333333333331
aF3.1839999999999997
aF0.41266666666666668
aF1.8893333333333331
aF4.4053333333333331
aF0.72599999999999998
aF2.9079999999999999
aF371.4666666666667
aS'2'
tp273
a((lp274
F13.816666666666666
aF3.4386666666666663
aF2.6066666666666665
aF20.946666666666665
aF112.93333333333334
aF1.9466666666666668
aF0.65600000000000003
aF0.51866666666666661
aF0.83266666666666667
aF5.968
aF0.97199999999999998
aF1.998
aF745.33333333333337
aS'3'
tp275
a((lp276
F13.816666666666666
aF2.0893333333333333
aF2.4820000000000002
aF17.066666666666666
aF106.80000000000001
aF2.7199999999999998
aF3.1839999999999997
aF0.27133333333333332
aF1.8893333333333331
aF4.4053333333333331
aF1.1360000000000001
aF1119.2
aS'1'
tp277
a((lp278
F13.056666666666667
aF3.4386666666666663
aF2.6066666666666665
aF22.239999999999998
aF106.80000000000001
aF1.7533333333333334
aF0.65600000000000003
aF0.6246666666666667
aF1.0439999999999998
aF5.968
aF0.89000000000000001
aF2.1799999999999997
aF651.86666666666667
aS'3'
tp279
a((lp280
F14.07
aF1.752
aF2.6066666666666665
aF18.359999999999999
aF94.533333333333331
aF2.5266666666666664
aF3.1839999999999997
aF0.23600000000000002
aF2.3119999999999998
aF5.968
aF1.3
aF3.4540000000000002
aF1306.1333333333334
aS'1'
tp281
a((lp282
F12.549999999999999
aF1.0773333333333333
aF2.1080000000000001
aF19.653333333333332
aF88.400000000000006
aF3.6866666666666665
aF3.8159999999999998
aF0.27133333333333332
aF2.1006666666666667
aF5.1866666666666665
aF1.054
aF2.9079999999999999
aF745.33333333333337
aS'2'
tp283
a((lp284
F13.309999999999999
aF3.7759999999999998
aF2.2326666666666668
aF22.239999999999998
aF106.80000000000001
aF1.5600000000000001
aF0.65600000000000003
aF0.44800000000000001
aF1.4666666666666666
aF4.4053333333333331
aF0.64400000000000002
aF1.8160000000000001
aF838.79999999999995
aS'3'
tp285
a((lp286
F13.309999999999999
aF2.0893333333333333
aF2.8559999999999999
aF26.119999999999997
aF119.06666666666666
aF2.333333333333333
aF1.288
aF0.27133333333333332
aF1.6779999999999997
aF7.5306666666666668
aF0.64400000000000002
aF1.452
aF464.93333333333334
aS'3'
tp287
a((lp288
F14.576666666666666
aF1.752
aF2.7313333333333336
aF26.119999999999997
aF100.66666666666667
aF2.9133333333333331
aF1.6040000000000001
aF0.55400000000000005
aF2.7346666666666666
aF0.64400000000000002
aF1.998
aF745.33333333333337
aS'3'
tp289
a((lp290
F13.816666666666666
aF5.1253333333333337
aF2.3573333333333335
aF20.946666666666665
aF94.533333333333331
aF2.1399999999999997
aF0.97199999999999998
aF0.48333333333333334
aF1.0439999999999998
aF4.4053333333333331
aF0.97199999999999998
aF2.1799999999999997
aF558.39999999999998
aS'3'
tp291
a((lp292
F13.309999999999999
aF1.752
aF2.2326666666666668
aF17.066666666666666
aF94.533333333333331
aF2.5266666666666664
aF2.2359999999999998
aF0.27133333333333332
aF1.4666666666666666
aF4.4053333333333331
aF1.054
aF2.9079999999999999
aF1306.1333333333334
aS'1'
tp293
a((lp294
F12.043333333333333
aF3.4386666666666663
aF2.1080000000000001
aF19.653333333333332
aF88.400000000000006
aF2.1399999999999997
aF1.9200000000000002
aF0.37733333333333335
aF1.8893333333333331
aF2.0613333333333332
aF0.97199999999999998
aF3.0899999999999999
aF651.86666666666667
aS'2'
tp295
a((lp296
F13.309999999999999
aF2.0893333333333333
aF2.7313333333333336
aF17.066666666666666
aF106.80000000000001
aF3.1066666666666665
aF3.5
aF0.34200000000000003
aF1.6779999999999997
aF6.7493333333333334
aF1.1360000000000001
aF2.9079999999999999
aF1306.1333333333334
aS'1'
tp297
a((lp298
F12.043333333333333
aF2.4266666666666667
aF2.8559999999999999
aF28.706666666666663
aF94.533333333333331
aF2.1399999999999997
aF2.552
aF0.58933333333333338
aF1.8893333333333331
aF3.6239999999999997
aF0.97199999999999998
aF2.544
aF558.39999999999998
aS'2'
tp299
a((lp300
F13.056666666666667
aF1.752
aF2.1080000000000001
aF13.186666666666666
aF94.533333333333331
aF2.9133333333333331
aF3.5
aF0.20066666666666666
aF2.9459999999999997
aF7.5306666666666668
aF1.1360000000000001
aF3.0899999999999999
aF1212.6666666666667
aS'1'
tp301
a((lp302
F13.056666666666667
aF1.4146666666666667
aF2.3573333333333335
aF18.359999999999999
aF125.2
aF1.5600000000000001
aF1.288
aF0.23600000000000002
aF1.0439999999999998
aF4.4053333333333331
aF0.80800000000000005
aF1.452
aF651.86666666666667
aS'3'
tp303
a((lp304
F12.549999999999999
aF4.1133333333333333
aF2.4820000000000002
aF22.239999999999998
aF88.400000000000006
aF2.333333333333333
aF0.97199999999999998
aF0.51866666666666661
aF1.0439999999999998
aF8.3119999999999994
aF0.56199999999999994
aF1.6339999999999999
aF558.39999999999998
aS'3'
tp305
a((lp306
F12.803333333333333
aF3.4386666666666663
aF1.9833333333333334
aF17.066666666666666
aF82.266666666666666
aF1.7533333333333334
aF1.288
aF0.44800000000000001
aF0.83266666666666667
aF3.6239999999999997
aF0.72599999999999998
aF2.1799999999999997
aF464.93333333333334
aS'2'
tp307
a((lp308
F14.07
aF1.752
aF2.2326666666666668
aF17.066666666666666
aF106.80000000000001
aF3.1066666666666665
aF3.5
aF0.23600000000000002
aF2.3119999999999998
aF6.7493333333333334
aF0.97199999999999998
aF3.4540000000000002
aF1025.7333333333333
aS'1'
tp309
a((lp310
F12.549999999999999
aF2.7640000000000002
aF2.3573333333333335
aF22.239999999999998
aF94.533333333333331
aF1.7533333333333334
aF1.9200000000000002
aF1.4666666666666666
aF2.8426666666666667
aF0.89000000000000001
aF3.4540000000000002
aF371.4666666666667
aS'2'
tp311
a((lp312
F13.309999999999999
aF2.7640000000000002
aF2.4820000000000002
aF20.946666666666665
aF125.2
aF1.7533333333333334
aF0.97199999999999998
aF0.55400000000000005
aF1.4666666666666666
aF9.8746666666666663
aF0.64400000000000002
aF1.6339999999999999
aF932.26666666666665
aS'3'
tp313
a((lp314
F12.043333333333333
aF1.752
aF2.4820000000000002
aF22.239999999999998
aF88.400000000000006
aF1.5600000000000001
aF1.288
aF0.51866666666666661
aF1.6779999999999997
aF3.6239999999999997
aF1.054
aF2.726
aF464.93333333333334
aS'2'
tp315
a((lp316
F12.549999999999999
aF1.752
aF1.9833333333333334
aF20.946666666666665
aF88.400000000000006
aF2.333333333333333
aF1.9200000000000002
aF0.34200000000000003
aF1.6779999999999997
aF3.6239999999999997
aF1.054
aF3.6360000000000001
aF745.33333333333337
aS'2'
tp317
a((lp318
F11.789999999999999
aF2.0893333333333333
aF28.706666666666663
aF119.06666666666666
aF3.2999999999999998
aF0.48333333333333334
aF1.8893333333333331
aF6.7493333333333334
aF0.97199999999999998
aF3.8180000000000001
aF558.39999999999998
aS'2'
tp319
a((lp320
F14.576666666666666
aF2.0893333333333333
aF2.6066666666666665
aF17.066666666666666
aF119.06666666666666
aF3.8799999999999999
aF3.5
aF0.27133333333333332
aF2.3119999999999998
aF8.3119999999999994
aF0.89000000000000001
aF3.4540000000000002
aF1493.0666666666666
aS'1'
tp321
a((lp322
F14.83
aF1.752
aF2.4820000000000002
aF11.893333333333333
aF94.533333333333331
aF3.1066666666666665
aF3.8159999999999998
aF0.44800000000000001
aF2.9459999999999997
aF5.968
aF1.3
aF2.9079999999999999
aF1212.6666666666667
aS'1'
tp323
a((lp324
F12.296666666666667
aF3.4386666666666663
aF2.2326666666666668
aF18.359999999999999
aF88.400000000000006
aF2.9133333333333331
aF3.1839999999999997
aF0.48333333333333334
aF2.9459999999999997
aF2.8426666666666667
aF1.464
aF2.9079999999999999
aF464.93333333333334
aS'2'
tp325
a((lp326
F13.816666666666666
aF1.752
aF2.6066666666666665
aF17.066666666666666
aF112.93333333333334
aF3.4933333333333332
aF3.8159999999999998
aF0.20066666666666666
aF2.1006666666666667
aF7.5306666666666668
aF0.97199999999999998
aF2.9079999999999999
aF1306.1333333333334
aS'1'
tp327
a((lp328
F12.549999999999999
aF3.1013333333333328
aF2.7313333333333336
aF27.413333333333334
aF100.66666666666667
aF1.9466666666666668
aF0.65600000000000003
aF0.66000000000000003
aF1.2553333333333332
aF7.5306666666666668
aF0.72599999999999998
aF1.8160000000000001
aF932.26666666666665
aS'3'
tp329
a((lp330
F12.043333333333333
aF1.752
aF2.1080000000000001
aF20.946666666666665
aF88.400000000000006
aF2.1399999999999997
aF1.6040000000000001
aF0.30666666666666664
aF1.6779999999999997
aF2.0613333333333332
aF0.97199999999999998
aF3.4540000000000002
aF558.39999999999998
aS'2'
tp331
a((lp332
F11.283333333333333
aF1.752
aF2.2326666666666668
aF22.239999999999998
aF88.400000000000006
aF2.5266666666666664
aF2.2359999999999998
aF0.55400000000000005
aF2.1006666666666667
aF2.0613333333333332
aF2.9079999999999999
aF464.93333333333334
aS'2'
tp333
a((lp334
F13.563333333333333
aF3.4386666666666663
aF2.4820000000000002
aF22.239999999999998
aF94.533333333333331
aF1.9466666666666668
aF0.97199999999999998
aF0.48333333333333334
aF1.2553333333333332
aF9.0933333333333337
aF0.56199999999999994
aF1.6339999999999999
aF651.86666666666667
aS'3'
tp335
a((lp336
F13.056666666666667
aF2.2326666666666668
aF22.239999999999998
aF88.400000000000006
aF2.7199999999999998
aF2.8679999999999999
aF0.30666666666666664
aF2.1006666666666667
aF2.8426666666666667
aF0.80800000000000005
aF3.2719999999999998
aF464.93333333333334
aS'2'
tp337
a((lp338
F13.309999999999999
aF2.0893333333333333
aF2.2326666666666668
aF11.893333333333333
aF100.66666666666667
aF2.7199999999999998
aF2.8679999999999999
aF0.27133333333333332
aF1.4666666666666666
aF4.4053333333333331
aF1.054
aF3.4540000000000002
aF1119.2
aS'1'
tp339
a((lp340
F12.296666666666667
aF1.752
aF2.3573333333333335
aF23.533333333333331
aF94.533333333333331
aF1.9466666666666668
aF1.9200000000000002
aF0.44800000000000001
aF1.6779999999999997
aF2.8426666666666667
aF1.3820000000000001
aF2.3620000000000001
aF558.39999999999998
aS'2'
tp341
a((lp342
F14.576666666666666
aF2.0893333333333333
aF2.4820000000000002
aF13.186666666666666
aF106.80000000000001
aF3.4933333333333332
aF3.8159999999999998
aF0.30666666666666664
aF3.1573333333333333
aF7.5306666666666668
aF1.218
aF3.0899999999999999
aF1586.5333333333333
aS'1'
tp343
a((lp344
F12.296666666666667
aF1.752
aF2.2326666666666668
aF19.653333333333332
aF82.266666666666666
aF1.7533333333333334
aF2.2359999999999998
aF0.37733333333333335
aF1.6779999999999997
aF3.6239999999999997
aF1.054
aF3.2719999999999998
aF558.39999999999998
aS'2'
tp345
a((lp346
F11.789999999999999
aF2.7640000000000002
aF2.980666666666667
aF20.946666666666665
aF106.80000000000001
aF1.7533333333333334
aF2.2359999999999998
aF0.6246666666666667
aF1.2553333333333332
aF4.4053333333333331
aF1.3
aF2.544
aF651.86666666666667
aS'2'
tp347
a((lp348
F12.803333333333333
aF2.4266666666666667
aF2.3573333333333335
aF19.653333333333332
aF88.400000000000006
aF1.5600000000000001
aF0.65600000000000003
aF0.48333333333333334
aF0.83266666666666667
aF10.655999999999999
aF0.64400000000000002
aF1.6339999999999999
aF558.39999999999998
aS'3'
tp349
a((lp350
F14.323333333333332
aF4.1133333333333333
aF2.4820000000000002
aF19.653333333333332
aF112.93333333333334
aF2.9133333333333331
aF2.8679999999999999
aF0.30666666666666664
aF1.2553333333333332
aF5.968
aF0.89000000000000001
aF3.4540000000000002
aF1119.2
aS'1'
tp351
a((lp352
F13.816666666666666
aF3.1013333333333328
aF2.6066666666666665
aF15.773333333333333
aF119.06666666666666
aF2.7199999999999998
aF3.1839999999999997
aF0.20066666666666666
aF1.6779999999999997
aF5.1866666666666665
aF0.97199999999999998
aF3.4540000000000002
aF932.26666666666665
aS'1'
tp353
a((lp354
F11.789999999999999
aF1.752
aF2.7313333333333336
aF26.119999999999997
aF88.400000000000006
aF1.9466666666666668
aF1.9200000000000002
aF0.41266666666666668
aF1.4666666666666666
aF2.8426666666666667
aF1.3820000000000001
aF3.2719999999999998
aF651.86666666666667
aS'2'
tp355
a((lp356
F13.056666666666667
aF3.1013333333333328
aF2.7313333333333336
aF22.239999999999998
aF100.66666666666667
aF1.5600000000000001
aF0.65600000000000003
aF0.55400000000000005
aF0.83266666666666667
aF5.1866666666666665
aF0.80800000000000005
aF2.3620000000000001
aF651.86666666666667
aS'3'
tp357
a.