(lp1
((lp2
F12.455
aF1.3725000000000001
aF2.5287500000000001
aF25.149999999999999
aF81.5
aF2.4299999999999997
aF2.1175000000000002
aF0.46125000000000005
aF1.5987499999999999
aF2.7450000000000001
aF1.095
aF3.3174999999999999
aF628.5
aS'2'
tp3
a((lp4
F13.404999999999999
aF3.9024999999999999
aF2.2949999999999999
aF20.299999999999997
aF104.5
aF2.0674999999999999
aF0.93250000000000011
aF0.66000000000000003
aF1.9949999999999999
aF11.535
aF0.63375000000000004
aF1.6112500000000001
aF803.75
aS'3'
tp5
a((lp6
F12.93
aF3.2699999999999996
aF2.7625000000000002
aF25.149999999999999
aF104.5
aF2.4299999999999997
aF0.93250000000000011
aF0.59375
aF1.2024999999999999
aF5.6750000000000007
aF0.94124999999999992
aF2.2937500000000002
aF628.5
aS'3'
tp7
a((lp8
F14.355
aF2.0049999999999999
aF2.2949999999999999
aF17.875
aF127.5
aF3.1549999999999998
aF3.3025000000000002
aF0.26250000000000001
aF2.3912499999999999
aF5.6750000000000007
aF1.095
aF4
aF803.75
aS'1'
tp9
a((lp10
F13.879999999999999
aF2.0049999999999999
aF2.5287500000000001
aF15.449999999999999
aF116
aF3.895
aF0.32874999999999999
aF1.9949999999999999
aF7.1400000000000006
aF1.095
aF3.3174999999999999
aF1329.5
aS'1'
tp11
a((lp12
F13.879999999999999
aF2.0049999999999999
aF2.7625000000000002
aF20.299999999999997
aF104.5
aF2.7925
aF2.71
aF0.32874999999999999
aF1.9949999999999999
aF4.21
aF1.24875
aF4
aF979
aS'1'
tp13
a((lp14
F12.93
aF2.0049999999999999
aF2.2949999999999999
aF22.725000000000001
aF93
aF1.7050000000000001
aF2.1175000000000002
aF0.52750000000000008
aF1.9949999999999999
aF4.21
aF0.94124999999999992
aF2.6349999999999998
aF628.5
aS'2'
tp15
a((lp16
F11.504999999999999
aF3.9024999999999999
aF1.8275000000000001
aF20.299999999999997
aF116
aF3.5175000000000001
aF2.71
aF0.26250000000000001
aF4.21
aF0.78749999999999998
aF2.9762500000000003
aF628.5
aS'2'
tp17
a((lp18
F2.0049999999999999
aF2.2949999999999999
aF15.449999999999999
aF104.5
aF3.1549999999999998
aF3.3025000000000002
aF0.32874999999999999
aF1.9949999999999999
aF5.6750000000000007
aF1.095
aF2.9762500000000003
aF1154.25
aS'1'
tp19
a((lp20
F11.98
aF1.3725000000000001
aF2.7625000000000002
aF20.299999999999997
aF104.5
aF2.4299999999999997
aF2.71
aF0.26250000000000001
aF2.3912499999999999
aF4.21
aF0.94124999999999992
aF3.3174999999999999
aF628.5
aS'2'
tp21
a((lp22
F13.879999999999999
aF1.3725000000000001
aF2.2949999999999999
aF17.875
aF104.5
aF3.1549999999999998
aF3.3025000000000002
aF0.26250000000000001
aF1.9949999999999999
aF8.6050000000000004
aF1.095
aF3.6587499999999999
aF1154.25
aS'1'
tp23
a((lp24
F13.404999999999999
aF5.1674999999999995
aF2.9962499999999999
aF25.149999999999999
aF116
aF2.0674999999999999
aF1.5250000000000001
aF0.32874999999999999
aF1.2024999999999999
aF8.6050000000000004
aF0.78749999999999998
aF1.9525000000000001
aF803.75
aS'3'
tp25
a((lp26
F13.404999999999999
aF4.5350000000000001
aF2.2949999999999999
aF20.299999999999997
aF127.5
aF1.7050000000000001
aF0.93250000000000011
aF0.46125000000000005
aF1.5987499999999999
aF11.535
aF0.63375000000000004
aF1.6112500000000001
aF979
aS'3'
tp27
a((lp28
F12.455
aF2.6375000000000002
aF2.5287500000000001
aF22.725000000000001
aF104.5
aF2.7925
aF2.1175000000000002
aF0.39500000000000002
aF1.5987499999999999
aF4.21
aF0.94124999999999992
aF3.6587499999999999
aF453.25
aS'2'
tp29
a((lp30
F13.404999999999999
aF2.6375000000000002
aF2.7625000000000002
aF20.299999999999997
aF104.5
aF3.1549999999999998
aF3.3025000000000002
aF0.32874999999999999
aF3.1837499999999999
aF7.1400000000000006
aF1.095
aF3.3174999999999999
aF1329.5
aS'1'
tp31
a((lp32
F14.355
aF2.0049999999999999
aF2.7625000000000002
aF20.299999999999997
aF127.5
aF3.1549999999999998
aF3.3025000000000002
aF0.39500000000000002
aF1.9949999999999999
aF7.1400000000000006
aF1.095
aF2.9762500000000003
aF1329.5
aS'1'
tp33
a((lp34
F14.355
aF2.0049999999999999
aF2.2949999999999999
aF17.875
aF116
aF3.1549999999999998
aF3.895
aF0.32874999999999999
aF2.3912499999999999
aF10.07
aF1.24875
aF3.3174999999999999
aF1329.5
aS'1'
tp35
a((lp36
F12.455
aF2.0049999999999999
aF2.5287500000000001
aF25.149999999999999
aF93
aF2.4299999999999997
aF2.71
aF0.46125000000000005
aF1.9949999999999999
aF2.7450000000000001
aF0.94124999999999992
aF2.9762500000000003
aF453.25
aS'2'
tp37
a((lp38
F12.455
aF4.5350000000000001
aF2.7625000000000002
aF27.574999999999996
aF104.5
aF2.4299999999999997
aF2.71
aF0.46125000000000005
aF1.9949999999999999
aF2.7450000000000001
aF0.94124999999999992
aF3.3174999999999999
aF453.25
aS'2'
tp39
a((lp40
F13.404999999999999
aF4.5350000000000001
aF2.5287500000000001
aF25.149999999999999
aF104.5
aF2.0674999999999999
aF0.93250000000000011
aF0.46125000000000005
aF1.5987499999999999
aF8.6050000000000004
aF0.78749999999999998
aF1.6112500000000001
aF803.75
aS'3'
tp41
a((lp42
F12.93
aF2.0049999999999999
aF2.2949999999999999
aF22.725000000000001
aF81.5
aF1.7050000000000001
aF1.5250000000000001
aF0.59375
aF1.9949999999999999
aF4.21
aF1.095
aF2.2937500000000002
aF628.5
aS'2'
tp43
a((lp44
F11.98
aF3.2699999999999996
aF2.2949999999999999
aF20.299999999999997
aF116
aF2.0674999999999999
aF1.5250000000000001
aF0.46125000000000005
aF1.2024999999999999
aF2.7450000000000001
aF1.095
aF2.6349999999999998
aF628.5
aS'2'
tp45
a((lp46
F11.504999999999999
aF2.6375000000000002
aF2.5287500000000001
aF20.299999999999997
aF104.5
aF3.1549999999999998
aF3.3025000000000002
aF0.32874999999999999
aF1.9949999999999999
aF4.21
aF0.94124999999999992
aF3.6587499999999999
aF628.5
aS'2'
tp47
a((lp48
F14.355
aF2.0049999999999999
aF2.5287500000000001
aF17.875
aF127.5
aF3.1549999999999998
aF3.3025000000000002
aF0.32874999999999999
aF2.3912499999999999
aF5.6750000000000007
aF1.095
aF4
aF1154.25
aS'1'
tp49
a((lp50
F14.355
aF2.6375000000000002
aF2.5287500000000001
aF20.299999999999997
aF93
aF1.7050000000000001
aF0.93250000000000011
aF0.46125000000000005
aF1.5987499999999999
aF10.07
aF0.63375000000000004
aF1.9525000000000001
aF803.75
aS'3'
tp51
a((lp52
F14.355
aF2.6375000000000002
aF2.7625000000000002
aF17.875
aF127.5
aF2.7925
aF2.71
aF0.32874999999999999
aF1.5987499999999999
aF5.6750000000000007
aF1.095
aF3.6587499999999999
aF1329.5
aS'1'
tp53
a((lp54
F13.879999999999999
aF2.0049999999999999
aF2.7625000000000002
aF22.725000000000001
aF104.5
aF3.1549999999999998
aF3.3025000000000002
aF0.32874999999999999
aF2.3912499999999999
aF7.1400000000000006
aF1.24875
aF2.9762500000000003
aF1329.5
aS'1'
tp55
a((lp56
F12.455
aF2.0049999999999999
aF2.5287500000000001
aF22.725000000000001
aF93
aF2.7925
aF2.71
aF0.46125000000000005
aF1.2024999999999999
aF4.21
aF0.94124999999999992
aF3.3174999999999999
aF453.25
aS'2'
tp57
a((lp58
F12.455
aF3.9024999999999999
aF2.2949999999999999
aF20.299999999999997
aF116
aF1.7050000000000001
aF0.93250000000000011
aF0.32874999999999999
aF1.2024999999999999
aF8.6050000000000004
aF0.78749999999999998
aF2.2937500000000002
aF979
aS'3'
tp59
a((lp60
F12.93
aF3.2699999999999996
aF2.5287500000000001
aF20.299999999999997
aF104.5
aF1.3425
aF1.5250000000000001
aF0.26250000000000001
aF1.2024999999999999
aF5.6750000000000007
aF0.78749999999999998
aF1.6112500000000001
aF628.5
aS'3'
tp61
a((lp62
F12.93
aF3.9024999999999999
aF2.5287500000000001
aF22.725000000000001
aF116
aF1.7050000000000001
aF1.5250000000000001
aF0.19625000000000001
aF1.2024999999999999
aF5.6750000000000007
aF0.78749999999999998
aF1.6112500000000001
aF628.5
aS'3'
tp63
a((lp64
F13.879999999999999
aF2.0049999999999999
aF2.7625000000000002
aF20.299999999999997
aF116
aF3.1549999999999998
aF3.895
aF0.46125000000000005
aF1.9949999999999999
aF7.1400000000000006
aF1.24875
aF2.6349999999999998
aF1154.25
aS'1'
tp65
a((lp66
F13.404999999999999
aF2.0049999999999999
aF2.7625000000000002
aF20.299999999999997
aF104.5
aF2.7925
aF2.71
aF0.32874999999999999
aF1.5987499999999999
aF5.6750000000000007
aF1.24875
aF2.6349999999999998
aF1154.25
aS'1'
tp67
a((lp68
F14.355
aF2.0049999999999999
aF2.7625000000000002
aF15.449999999999999
aF104.5
aF3.5175000000000001
aF3.895
aF0.19625000000000001
aF1.9949999999999999
aF5.6750000000000007
aF0.94124999999999992
aF3.6587499999999999
aF1154.25
aS'1'
tp69
a((lp70
F13.404999999999999
aF5.7999999999999998
aF2.5287500000000001
aF22.725000000000001
aF104.5
aF2.0674999999999999
aF0.93250000000000011
aF0.66000000000000003
aF1.5987499999999999
aF8.6050000000000004
aF0.63375000000000004
aF1.6112500000000001
aF803.75
aS'3'
tp71
a((lp72
F11.98
aF1.3725000000000001
aF2.5287500000000001
aF22.725000000000001
aF104.5
aF3.5175000000000001
aF2.71
aF0.19625000000000001
aF1.9949999999999999
aF4.21
aF1.095
aF3.3174999999999999
aF979
aS'2'
tp73
a((lp74
F12.93
aF1.3725000000000001
aF2.0612500000000002
aF20.299999999999997
aF93
aF1.7050000000000001
aF1.5250000000000001
aF0.32874999999999999
aF1.5987499999999999
aF2.7450000000000001
aF1.095
aF2.9762500000000003
aF628.5
aS'2'
tp75
a((lp76
F12.93
aF5.1674999999999995
aF2.5287500000000001
aF22.725000000000001
aF93
aF1.7050000000000001
aF0.93250000000000011
aF0.52750000000000008
aF1.2024999999999999
aF8.6050000000000004
aF0.63375000000000004
aF1.9525000000000001
aF628.5
aS'3'
tp77
a((lp78
F14.355
aF4.5350000000000001
aF2.5287500000000001
aF15.449999999999999
aF139
aF3.1549999999999998
aF3.3025000000000002
aF0.26250000000000001
aF2.3912499999999999
aF5.6750000000000007
aF0.94124999999999992
aF3.6587499999999999
aF803.75
aS'1'
tp79
a((lp80
F13.879999999999999
aF2.0049999999999999
aF2.5287500000000001
aF22.725000000000001
aF104.5
aF2.7925
aF3.3025000000000002
aF0.26250000000000001
aF1.9949999999999999
aF5.6750000000000007
aF1.095
aF3.6587499999999999
aF979
aS'1'
tp81
a((lp82
F11.98
aF2.0049999999999999
aF2.0612500000000002
aF17.875
aF104.5
aF1.7050000000000001
aF2.1175000000000002
aF0.39500000000000002
aF1.2024999999999999
aF4.21
aF1.24875
aF2.2937500000000002
aF453.25
aS'2'
tp83
a((lp84
F13.879999999999999
aF4.5350000000000001
aF2.2949999999999999
aF22.725000000000001
aF93
aF1.3425
aF0.93250000000000011
aF0.52750000000000008
aF1.2024999999999999
aF7.1400000000000006
aF0.78749999999999998
aF1.9525000000000001
aF628.5
aS'3'
tp85
a((lp86
F12.93
aF1.3725000000000001
aF2.0612500000000002
aF17.875
aF104.5
aF2.0674999999999999
aF1.5250000000000001
aF0.59375
aF0.80624999999999991
aF7.1400000000000006
aF1.095
aF1.6112500000000001
aF453.25
aS'2'
tp87
a((lp88
F13.879999999999999
aF2.0049999999999999
aF2.2949999999999999
aF17.875
aF127.5
aF2.7925
aF3.3025000000000002
aF0.26250000000000001
aF1.9949999999999999
aF7.1400000000000006
aF0.94124999999999992
aF3.3174999999999999
aF1154.25
aS'1'
tp89
a((lp90
F14.355
aF2.0049999999999999
aF2.5287500000000001
aF17.875
aF127.5
aF3.5175000000000001
aF3.3025000000000002
aF0.26250000000000001
aF2.3912499999999999
aF7.1400000000000006
aF0.94124999999999992
aF3.3174999999999999
aF979
aS'1'
tp91
a((lp92
F13.404999999999999
aF2.6375000000000002
aF2.9962499999999999
aF22.725000000000001
aF127.5
aF3.1549999999999998
aF2.71
aF0.39500000000000002
aF1.9949999999999999
aF5.6750000000000007
aF1.095
aF2.9762500000000003
aF803.75
aS'1'
tp93
a((lp94
F11.98
aF4.5350000000000001
aF2.5287500000000001
aF22.725000000000001
aF93
aF3.1549999999999998
aF3.3025000000000002
aF0.26250000000000001
aF3.1837499999999999
aF4.21
aF0.78749999999999998
aF3.6587499999999999
aF453.25
aS'2'
tp95
a((lp96
F12.455
aF1.3725000000000001
aF2.2949999999999999
aF20.299999999999997
aF93
aF3.5175000000000001
aF3.3025000000000002
aF0.19625000000000001
aF1.9949999999999999
aF5.6750000000000007
aF1.24875
aF2.9762500000000003
aF453.25
aS'2'
tp97
a((lp98
F13.879999999999999
aF3.9024999999999999
aF2.2949999999999999
aF20.299999999999997
aF93
aF1.7050000000000001
aF0.93250000000000011
aF0.59375
aF1.2024999999999999
aF7.1400000000000006
aF0.94124999999999992
aF1.9525000000000001
aF628.5
aS'3'
tp99
a((lp100
F13.404999999999999
aF2.6375000000000002
aF2.5287500000000001
aF20.299999999999997
aF93
aF1.7050000000000001
aF0.93250000000000011
aF0.39500000000000002
aF0.80624999999999991
aF5.6750000000000007
aF0.78749999999999998
aF2.6349999999999998
aF803.75
aS'3'
tp101
a((lp102
F12.93
aF2.6375000000000002
aF2.2949999999999999
aF22.725000000000001
aF93
aF2.7925
aF2.71
aF0.26250000000000001
aF1.5987499999999999
aF2.7450000000000001
aF0.94124999999999992
aF2.9762500000000003
aF453.25
aS'2'
tp103
a((lp104
F13.879999999999999
aF2.0049999999999999
aF2.5287500000000001
aF22.725000000000001
aF127.5
aF3.1549999999999998
aF3.3025000000000002
aF0.26250000000000001
aF2.7875000000000001
aF7.1400000000000006
aF1.095
aF3.3174999999999999
aF1154.25
aS'1'
tp105
a((lp106
F14.355
aF2.0049999999999999
aF2.5287500000000001
aF17.875
aF104.5
aF2.4299999999999997
aF2.71
aF0.26250000000000001
aF1.5987499999999999
aF5.6750000000000007
aF1.24875
aF2.9762500000000003
aF1329.5
aS'1'
tp107
a((lp108
F12.455
aF1.3725000000000001
aF2.0612500000000002
aF15.449999999999999
aF139
aF2.0674999999999999
aF2.1175000000000002
aF0.39500000000000002
aF2.7875000000000001
aF4.21
aF1.095
aF2.6349999999999998
aF803.75
aS'2'
tp109
a((lp110
F13.879999999999999
aF2.0049999999999999
aF2.7625000000000002
aF17.875
aF116
aF3.1549999999999998
aF3.3025000000000002
aF0.39500000000000002
aF1.9949999999999999
aF7.1400000000000006
aF1.24875
aF2.9762500000000003
aF1504.75
aS'1'
tp111
a((lp112
F14.355
aF2.0049999999999999
aF2.5287500000000001
aF15.449999999999999
aF116
aF3.5175000000000001
aF3.895
aF0.39500000000000002
aF1.9949999999999999
aF7.1400000000000006
aF1.095
aF2.9762500000000003
aF1504.75
aS'1'
tp113
a((lp114
F13.879999999999999
aF2.6375000000000002
aF2.7625000000000002
aF25.149999999999999
aF116
aF1.7050000000000001
aF0.93250000000000011
aF0.39500000000000002
aF1.5987499999999999
aF10.07
aF0.78749999999999998
aF1.9525000000000001
aF803.75
aS'3'
tp115
a((lp116
F12.455
aF2.0049999999999999
aF2.0612500000000002
aF17.875
aF93
aF2.7925
aF2.71
aF0.32874999999999999
aF1.9949999999999999
aF4.21
aF1.24875
aF2.9762500000000003
aF453.25
aS'2'
tp117
a((lp118
F13.404999999999999
aF2.0049999999999999
aF2.7625000000000002
aF150.5
aF3.5175000000000001
aF3.3025000000000002
aF0.26250000000000001
aF1.9949999999999999
aF4.21
aF1.4024999999999999
aF3.6587499999999999
aF1154.25
aS'2'
tp119
a((lp120
F14.355
aF5.1674999999999995
aF2.2949999999999999
aF20.299999999999997
aF81.5
aF1.3425
aF0.93250000000000011
aF0.46125000000000005
aF0.80624999999999991
aF5.6750000000000007
aF0.63375000000000004
aF1.6112500000000001
aF453.25
aS'3'
tp121
a((lp122
F12.93
aF2.6375000000000002
aF2.5287500000000001
aF25.149999999999999
aF104.5
aF1.3425
aF1.5250000000000001
aF0.32874999999999999
aF1.2024999999999999
aF7.1400000000000006
aF0.78749999999999998
aF1.6112500000000001
aF628.5
aS'3'
tp123
a((lp124
F13.879999999999999
aF2.0049999999999999
aF2.7625000000000002
aF25.149999999999999
aF93
aF3.1549999999999998
aF3.3025000000000002
aF0.26250000000000001
aF1.9949999999999999
aF4.21
aF1.4024999999999999
aF3.3174999999999999
aF453.25
aS'2'
tp125
a((lp126
F13.404999999999999
aF3.9024999999999999
aF2.5287500000000001
aF22.725000000000001
aF116
aF1.7050000000000001
aF1.5250000000000001
aF0.39500000000000002
aF1.2024999999999999
aF10.07
aF0.63375000000000004
aF1.6112500000000001
aF628.5
aS'3'
tp127
a((lp128
F12.455
aF2.0049999999999999
aF2.7625000000000002
aF20.299999999999997
aF104.5
aF2.0674999999999999
aF2.1175000000000002
aF0.46125000000000005
aF1.2024999999999999
aF4.21
aF1.5562499999999999
aF2.2937500000000002
aF453.25
aS'2'
tp129
a((lp130
F13.404999999999999
aF3.9024999999999999
aF2.5287500000000001
aF22.725000000000001
aF93
aF1.7050000000000001
aF2.1175000000000002
aF0.66000000000000003
aF1.9949999999999999
aF5.6750000000000007
aF0.94124999999999992
aF2.2937500000000002
aF628.5
aS'2'
tp131
a((lp132
F12.455
aF3.2699999999999996
aF2.2949999999999999
aF20.299999999999997
aF93
aF2.7925
aF2.71
aF0.26250000000000001
aF1.9949999999999999
aF2.7450000000000001
aF1.24875
aF3.3174999999999999
aF453.25
aS'2'
tp133
a((lp134
F14.355
aF2.0049999999999999
aF2.2949999999999999
aF17.875
aF104.5
aF2.7925
aF2.71
aF0.26250000000000001
aF1.9949999999999999
aF5.6750000000000007
aF1.095
aF3.6587499999999999
aF1154.25
aS'1'
tp135
a((lp136
F13.879999999999999
aF2.0049999999999999
aF2.7625000000000002
aF22.725000000000001
aF93
aF2.7925
aF1.5250000000000001
aF0.52750000000000008
aF2.3912499999999999
aF13
aF0.63375000000000004
aF1.9525000000000001
aF628.5
aS'3'
tp137
a((lp138
F12.455
aF5.1674999999999995
aF2.7625000000000002
aF22.725000000000001
aF93
aF1.7050000000000001
aF0.93250000000000011
aF0.59375
aF0.80624999999999991
aF4.21
aF0.78749999999999998
aF1.6112500000000001
aF803.75
aS'3'
tp139
a((lp140
F11.98
aF2.6375000000000002
aF2.7625000000000002
aF22.725000000000001
aF139
aF1.7050000000000001
aF1.5250000000000001
aF0.19625000000000001
aF1.5987499999999999
aF2.7450000000000001
aF1.095
aF2.2937500000000002
aF628.5
aS'2'
tp141
a((lp142
F12.455
aF2.6375000000000002
aF1.8275000000000001
aF17.875
aF104.5
aF2.4299999999999997
aF2.71
aF0.26250000000000001
aF1.5987499999999999
aF4.21
aF1.4024999999999999
aF2.9762500000000003
aF803.75
aS'2'
tp143
a((lp144
F13.879999999999999
aF3.2699999999999996
aF2.5287500000000001
aF22.725000000000001
aF93
aF1.7050000000000001
aF0.93250000000000011
aF0.46125000000000005
aF1.2024999999999999
aF10.07
aF0.78749999999999998
aF1.9525000000000001
aF628.5
aS'3'
tp145
a((lp146
F12.455
aF1.3725000000000001
aF2.0612500000000002
aF20.299999999999997
aF93
aF2.4299999999999997
aF2.71
aF0.32874999999999999
aF1.5987499999999999
aF2.7450000000000001
aF1.4024999999999999
aF3.3174999999999999
aF453.25
aS'2'
tp147
a((lp148
F13.879999999999999
aF2.0049999999999999
aF2.5287500000000001
aF17.875
aF93
aF2.7925
aF3.3025000000000002
aF0.32874999999999999
aF1.9949999999999999
aF5.6750000000000007
aF1.24875
aF2.9762500000000003
aF1329.5
aS'1'
tp149
a((lp150
F12.455
aF2.0049999999999999
aF2.2949999999999999
aF22.725000000000001
aF104.5
aF1.3425
aF1.5250000000000001
aF0.39500000000000002
aF1.5987499999999999
aF4.21
aF0.94124999999999992
aF1.9525000000000001
aF979
aS'2'
tp151
a((lp152
F13.879999999999999
aF3.2699999999999996
aF2.7625000000000002
aF25.149999999999999
aF127.5
aF1.7050000000000001
aF2.1175000000000002
aF0.26250000000000001
aF1.5987499999999999
aF8.6050000000000004
aF0.63375000000000004
aF1.6112500000000001
aF628.5
aS'3'
tp153
a((lp154
F13.879999999999999
aF2.0049999999999999
aF2.7625000000000002
aF17.875
aF116
aF3.1549999999999998
aF3.3025000000000002
aF0.32874999999999999
aF1.5987499999999999
aF8.6050000000000004
aF1.4024999999999999
aF2.9762500000000003
aF1329.5
aS'1'
tp155
a((lp156
F12.455
aF1.3725000000000001
aF2.0612500000000002
aF20.299999999999997
aF93
aF2.4299999999999997
aF2.1175000000000002
aF0.39500000000000002
aF2.3912499999999999
aF2.7450000000000001
aF0.94124999999999992
aF3.3174999999999999
aF453.25
aS'2'
tp157
a((lp158
F13.879999999999999
aF2.0049999999999999
aF2.5287500000000001
aF17.875
aF127.5
aF3.1549999999999998
aF3.3025000000000002
aF0.39500000000000002
aF2.3912499999999999
aF7.1400000000000006
aF1.095
aF3.6587499999999999
aF803.75
aS'1'
tp159
a((lp160
F12.93
aF2.0049999999999999
aF2.2949999999999999
aF20.299999999999997
aF93
aF2.4299999999999997
aF2.71
aF0.26250000000000001
aF1.9949999999999999
aF4.21
aF1.24875
aF3.3174999999999999
aF803.75
aS'2'
tp161
a((lp162
F13.879999999999999
aF2.0049999999999999
aF2.7625000000000002
aF20.299999999999997
aF139
aF3.1549999999999998
aF3.3025000000000002
aF0.52750000000000008
aF1.5987499999999999
aF5.6750000000000007
aF1.4024999999999999
aF3.3174999999999999
aF1329.5
aS'1'
tp163
a((lp164
F12.93
aF3.9024999999999999
aF2.5287500000000001
aF20.299999999999997
aF93
aF1.7050000000000001
aF0.93250000000000011
aF0.46125000000000005
aF1.2024999999999999
aF11.535
aF0.78749999999999998
aF1.9525000000000001
aF803.75
aS'3'
tp165
a((lp166
F12.455
aF1.3725000000000001
aF1.8275000000000001
aF17.875
aF162
aF2.0674999999999999
aF1.5250000000000001
aF0.19625000000000001
aF2.7875000000000001
aF4.21
aF1.4024999999999999
aF3.3174999999999999
aF803.75
aS'2'
tp167
a((lp168
F14.83
aF3.9024999999999999
aF2.2949999999999999
aF17.875
aF104.5
aF3.5175000000000001
aF3.3025000000000002
aF0.32874999999999999
aF2.3912499999999999
aF5.6750000000000007
aF1.095
aF3.6587499999999999
aF1154.25
aS'1'
tp169
a((lp170
F12.455
aF1.3725000000000001
aF2.2949999999999999
aF17.875
aF104.5
aF2.0674999999999999
aF1.5250000000000001
aF0.66000000000000003
aF0.80624999999999991
aF4.21
aF1.4024999999999999
aF1.9525000000000001
aF803.75
aS'2'
tp171
a((lp172
F13.404999999999999
aF2.0049999999999999
aF2.7625000000000002
aF17.875
aF104.5
aF3.1549999999999998
aF3.3025000000000002
aF0.39500000000000002
aF1.5987499999999999
aF5.6750000000000007
aF0.94124999999999992
aF3.3174999999999999
aF1329.5
aS'1'
tp173
a((lp174
F12.455
aF4.5350000000000001
aF2.5287500000000001
aF22.725000000000001
aF81.5
aF2.4299999999999997
aF2.1175000000000002
aF0.46125000000000005
aF1.5987499999999999
aF2.7450000000000001
aF0.94124999999999992
aF2.6349999999999998
aF628.5
aS'2'
tp175
a((lp176
F14.83
aF2.0049999999999999
aF2.5287500000000001
aF15.449999999999999
aF104.5
aF2.7925
aF2.71
aF0.32874999999999999
aF1.9949999999999999
aF5.6750000000000007
aF1.095
aF3.6587499999999999
aF1329.5
aS'1'
tp177
a((lp178
F13.404999999999999
aF2.0049999999999999
aF2.9962499999999999
aF17.875
aF116
aF2.7925
aF2.71
aF0.39500000000000002
aF1.5987499999999999
aF5.6750000000000007
aF1.095
aF2.9762500000000003
aF979
aS'1'
tp179
a((lp180
F12.93
aF1.3725000000000001
aF2.2949999999999999
aF20.299999999999997
aF104.5
aF1.7050000000000001
aF0.93250000000000011
aF0.59375
aF1.5987499999999999
aF8.6050000000000004
aF0.63375000000000004
aF1.6112500000000001
aF803.75
aS'3'
tp181
a((lp182
F12.455
aF1.3725000000000001
aF2.0612500000000002
aF20.299999999999997
aF81.5
aF2.4299999999999997
aF2.1175000000000002
aF0.32874999999999999
aF1.2024999999999999
aF5.6750000000000007
aF1.24875
aF3.6587499999999999
aF628.5
aS'2'
tp183
a((lp184
F12.93
aF5.7999999999999998
aF2.7625000000000002
aF25.149999999999999
aF104.5
aF2.0674999999999999
aF0.93250000000000011
aF0.66000000000000003
aF1.2024999999999999
aF5.6750000000000007
aF0.94124999999999992
aF1.9525000000000001
aF628.5
aS'3'
tp185
a((lp186
F13.879999999999999
aF5.7999999999999998
aF2.5287500000000001
aF22.725000000000001
aF104.5
aF1.7050000000000001
aF0.93250000000000011
aF0.52750000000000008
aF1.2024999999999999
aF8.6050000000000004
aF0.78749999999999998
aF1.9525000000000001
aF803.75
aS'3'
tp187
a((lp188
F12.455
aF1.3725000000000001
aF2.5287500000000001
aF25.149999999999999
aF81.5
aF2.0674999999999999
aF2.1175000000000002
aF0.46125000000000005
aF1.5987499999999999
aF2.7450000000000001
aF1.4024999999999999
aF2.9762500000000003
aF803.75
aS'2'
tp189
a((lp190
F12.93
aF1.3725000000000001
aF2.2949999999999999
aF20.299999999999997
aF104.5
aF2.4299999999999997
aF2.1175000000000002
aF0.32874999999999999
aF1.5987499999999999
aF2.7450000000000001
aF1.24875
aF3.3174999999999999
aF453.25
aS'2'
tp191
a((lp192
F13.879999999999999
aF3.2699999999999996
aF2.7625000000000002
aF25.149999999999999
aF104.5
aF1.7050000000000001
aF0.93250000000000011
aF0.52750000000000008
aF0.80624999999999991
aF5.6750000000000007
aF0.94124999999999992
aF2.2937500000000002
aF628.5
aS'3'
tp193
a((lp194
F13.404999999999999
aF1.3725000000000001
aF2.5287500000000001
aF17.875
aF116
aF2.7925
aF1.5250000000000001
aF0.59375
aF0.80624999999999991
aF4.21
aF1.095
aF1.9525000000000001
aF803.75
aS'2'
tp195
a((lp196
F14.355
aF2.0049999999999999
aF2.5287500000000001
aF17.875
aF116
aF3.5175000000000001
aF4.4874999999999998
aF0.32874999999999999
aF1.9949999999999999
aF10.07
aF1.24875
aF2.9762500000000003
aS'1'
tp197
a((lp198
F12.93
aF2.0049999999999999
aF2.2949999999999999
aF20.299999999999997
aF2.7925
aF2.71
aF0.32874999999999999
aF3.5800000000000001
aF2.7450000000000001
aF1.24875
aF2.6349999999999998
aF979
aS'2'
tp199
a((lp200
F12.93
aF2.0049999999999999
aF2.5287500000000001
aF17.875
aF104.5
aF2.7925
aF2.71
aF0.26250000000000001
aF1.5987499999999999
aF4.21
aF1.095
aF3.6587499999999999
aF1154.25
aS'1'
tp201
a((lp202
F14.355
aF2.6375000000000002
aF2.5287500000000001
aF20.299999999999997
aF116
aF3.1549999999999998
aF3.895
aF0.26250000000000001
aF2.3912499999999999
aF7.1400000000000006
aF1.4024999999999999
aF3.3174999999999999
aF1680
aS'1'
tp203
a((lp204
F12.93
aF2.6375000000000002
aF2.2949999999999999
aF20.299999999999997
aF104.5
aF1.7050000000000001
aF0.93250000000000011
aF0.66000000000000003
aF1.2024999999999999
aF7.1400000000000006
aF0.78749999999999998
aF1.6112500000000001
aF803.75
aS'3'
tp205
a((lp206
F13.404999999999999
aF3.9024999999999999
aF2.5287500000000001
aF20.299999999999997
aF116
aF1.7050000000000001
aF0.93250000000000011
aF0.46125000000000005
aF1.2024999999999999
aF5.6750000000000007
aF0.78749999999999998
aF1.9525000000000001
aF803.75
aS'3'
tp207
a((lp208
F11.98
aF1.3725000000000001
aF2.7625000000000002
aF20.299999999999997
aF104.5
aF2.7925
aF3.3025000000000002
aF0.32874999999999999
aF2.7875000000000001
aF2.7450000000000001
aF1.095
aF3.3174999999999999
aF803.75
aS'2'
tp209
a((lp210
F13.879999999999999
aF2.0049999999999999
aF2.5287500000000001
aF17.875
aF104.5
aF2.4299999999999997
aF2.71
aF0.46125000000000005
aF1.9949999999999999
aF4.21
aF1.24875
aF2.9762500000000003
aF1154.25
aS'1'
tp211
a((lp212
F13.404999999999999
aF3.9024999999999999
aF2.7625000000000002
aF20.299999999999997
aF104.5
aF2.4299999999999997
aF2.71
aF0.26250000000000001
aF1.9949999999999999
aF5.6750000000000007
aF1.095
aF3.6587499999999999
aF803.75
aS'1'
tp213
a((lp214
F13.404999999999999
aF4.5350000000000001
aF2.2949999999999999
aF17.875
aF104.5
aF2.7925
aF2.71
aF0.32874999999999999
aF1.9949999999999999
aF5.6750000000000007
aF0.94124999999999992
aF3.3174999999999999
aF803.75
aS'1'
tp215
a((lp216
F13.879999999999999
aF2.0049999999999999
aF2.2949999999999999
aF25.149999999999999
aF93
aF2.0674999999999999
aF2.1175000000000002
aF0.32874999999999999
aF1.2024999999999999
aF4.21
aF1.095
aF2.9762500000000003
aF628.5
aS'2'
tp217
a((lp218
F13.404999999999999
aF1.3725000000000001
aF1.8275000000000001
aF15.449999999999999
aF81.5
aF3.1549999999999998
aF3.3025000000000002
aF0.26250000000000001
aF2.3912499999999999
aF5.6750000000000007
aF1.24875
aF3.3174999999999999
aF628.5
aS'2'
tp219
a((lp220
F13.404999999999999
aF2.0049999999999999
aF2.2949999999999999
aF17.875
aF116
aF3.1549999999999998
aF3.3025000000000002
aF0.32874999999999999
aF2.3912499999999999
aF5.6750000000000007
aF0.94124999999999992
aF3.6587499999999999
aF979
aS'1'
tp221
a((lp222
F14.355
aF4.5350000000000001
aF2.7625000000000002
aF25.149999999999999
aF104.5
aF2.0674999999999999
aF0.93250000000000011
aF0.59375
aF1.5987499999999999
aF10.07
aF0.63375000000000004
aF1.6112500000000001
aF628.5
aS'3'
tp223
a((lp224
F13.879999999999999
aF4.5350000000000001
aF2.5287500000000001
aF20.299999999999997
aF93
aF2.0674999999999999
aF0.93250000000000011
aF0.52750000000000008
aF1.5987499999999999
aF10.07
aF0.63375000000000004
aF1.9525000000000001
aF628.5
aS'3'
tp225
a((lp226
F13.879999999999999
aF2.0049999999999999
aF2.9962499999999999
aF20.299999999999997
aF116
aF3.1549999999999998
aF3.3025000000000002
aF0.39500000000000002
aF1.9949999999999999
aF5.6750000000000007
aF1.4024999999999999
aF3.6587499999999999
aF979
aS'1'
tp227
a((lp228
F13.404999999999999
aF2.6375000000000002
aF3.23
aF25.149999999999999
aF127.5
aF2.7925
aF2.71
aF0.52750000000000008
aF1.9949999999999999
aF4.21
aF1.24875
aF3.3174999999999999
aF979
aS'1'
tp229
a((lp230
F13.879999999999999
aF1.3725000000000001
aF2.0612500000000002
aF20.299999999999997
aF104.5
aF2.4299999999999997
aF2.1175000000000002
aF0.32874999999999999
aF0.80624999999999991
aF4.21
aF1.24875
aF2.6349999999999998
aF803.75
aS'2'
tp231
a((lp232
F11.98
aF2.0049999999999999
aF2.2949999999999999
aF20.299999999999997
aF104.5
aF3.1549999999999998
aF2.71
aF0.19625000000000001
aF1.5987499999999999
aF4.21
aF1.24875
aF2.9762500000000003
aF453.25
aS'2'
tp233
a((lp234
F12.455
aF2.6375000000000002
aF2.2949999999999999
aF22.725000000000001
aF93
aF2.7925
aF2.71
aF0.39500000000000002
aF1.5987499999999999
aF4.21
aF0.94124999999999992
aF3.3174999999999999
aF453.25
aS'2'
tp235
a((lp236
F13.404999999999999
aF2.0049999999999999
aF2.2949999999999999
aF17.875
aF104.5
aF2.4299999999999997
aF2.71
aF0.32874999999999999
aF1.5987499999999999
aF4.21
aF1.24875
aF2.9762500000000003
aF1154.25
aS'1'
tp237
a((lp238
F13.879999999999999
aF3.9024999999999999
aF2.2949999999999999
aF20.299999999999997
aF93
aF2.7925
aF2.71
aF0.32874999999999999
aF1.5987499999999999
aF5.6750000000000007
aF0.94124999999999992
aF3.3174999999999999
aF1154.25
aS'1'
tp239
a((lp240
F12.455
aF2.0049999999999999
aF2.5287500000000001
aF20.299999999999997
aF81.5
aF1.7050000000000001
aF1.5250000000000001
aF0.52750000000000008
aF1.9949999999999999
aF2.7450000000000001
aF1.095
aF2.2937500000000002
aF628.5
aS'2'
tp241
a((lp242
F12.93
aF3.2699999999999996
aF2.5287500000000001
aF22.725000000000001
aF116
aF1.7050000000000001
aF1.5250000000000001
aF0.26250000000000001
aF1.5987499999999999
aF11.535
aF0.63375000000000004
aF1.6112500000000001
aF628.5
aS'3'
tp243
a((lp244
F13.879999999999999
aF2.0049999999999999
aF2.5287500000000001
aF20.299999999999997
aF116
aF3.1549999999999998
aF3.3025000000000002
aF0.26250000000000001
aF1.9949999999999999
aF7.1400000000000006
aF1.095
aF2.9762500000000003
aF1680
aS'1'
tp245
a((lp246
F12.455
aF1.3725000000000001
aF2.7625000000000002
aF20.299999999999997
aF104.5
aF2.4299999999999997
aF2.71
aF0.39500000000000002
aF2.3912499999999999
aF5.6750000000000007
aF1.24875
aF2.6349999999999998
aF803.75
aS'2'
tp247
a((lp248
F14.355
aF2.6375000000000002
aF2.5287500000000001
aF20.299999999999997
aF104.5
aF2.7925
aF3.3025000000000002
aF0.32874999999999999
aF2.3912499999999999
aF7.1400000000000006
aF1.095
aF2.9762500000000003
aF1154.25
aS'1'
tp249
a((lp250
F11.504999999999999
aF1.3725000000000001
aF2.5287500000000001
aF22.725000000000001
aF93
aF2.7925
aF2.1175000000000002
aF0.46125000000000005
aF1.5987499999999999
aF4.21
aF1.24875
aF2.6349999999999998
aF453.25
aS'2'
tp251
a((lp252
F11.98
aF2.6375000000000002
aF2.5287500000000001
aF22.725000000000001
aF93
aF2.0674999999999999
aF2.1175000000000002
aF0.52750000000000008
aF1.5987499999999999
aF4.21
aF1.095
aF2.9762500000000003
aF803.75
aS'2'
tp253
a((lp254
F12.93
aF3.9024999999999999
aF2.5287500000000001
aF25.149999999999999
aF104.5
aF3.1549999999999998
aF2.71
aF0.46125000000000005
aF1.9949999999999999
aF2.7450000000000001
aF1.24875
aF3.3174999999999999
aF628.5
aS'2'
tp255
a((lp256
F13.879999999999999
aF2.0049999999999999
aF2.7625000000000002
aF20.299999999999997
aF116
aF2.4299999999999997
aF2.71
aF0.32874999999999999
aF1.5987499999999999
aF4.21
aF1.24875
aF2.9762500000000003
aF1154.25
aS'1'
tp257
a((lp258
F12.455
aF1.3725000000000001
aF1.59375
aF13.024999999999999
aF93
aF2.0674999999999999
aF0.93250000000000011
aF0.32874999999999999
aF0.80624999999999991
aF2.7450000000000001
aF1.095
aF1.9525000000000001
aF628.5
aS'2'
tp259
a((lp260
F11.98
aF2.0049999999999999
aF2.0612500000000002
aF20.299999999999997
aF93
aF2.7925
aF2.1175000000000002
aF0.39500000000000002
aF1.5987499999999999
aF2.7450000000000001
aF0.94124999999999992
aF2.6349999999999998
aF453.25
aS'2'
tp261
a((lp262
F12.455
aF3.2699999999999996
aF2.5287500000000001
aF20.299999999999997
aF104.5
aF1.3425
aF0.93250000000000011
aF0.46125000000000005
aF0.80624999999999991
aF5.6750000000000007
aF0.78749999999999998
aF1.9525000000000001
aF628.5
aS'3'
tp263
a((lp264
F12.93
aF1.3725000000000001
aF2.2949999999999999
aF17.875
aF93
aF2.0674999999999999
aF0.93250000000000011
aF0.66000000000000003
aF1.5987499999999999
aF5.6750000000000007
aF0.78749999999999998
aF1.6112500000000001
aF803.75
aS'3'
tp265
a((lp266
F13.879999999999999
aF3.9024999999999999
aF2.7625000000000002
aF25.149999999999999
aF116
aF1.7050000000000001
aF0.93250000000000011
aF0.46125000000000005
aF1.5987499999999999
aF11.535
aF0.94124999999999992
aF1.6112500000000001
aF803.75
aS'3'
tp267
a((lp268
F13.404999999999999
aF1.3725000000000001
aF1.8275000000000001
aF17.875
aF93
aF2.0674999999999999
aF2.1175000000000002
aF0.26250000000000001
aF1.5987499999999999
aF5.6750000000000007
aF1.24875
aF2.6349999999999998
aF453.25
aS'2'
tp269
a((lp270
F12.455
aF2.0049999999999999
aF2.2949999999999999
aF22.725000000000001
aF116
aF2.0674999999999999
aF2.1175000000000002
aF0.39500000000000002
aF1.9949999999999999
aF2.7450000000000001
aF1.095
aF2.9762500000000003
aF453.25
aS'2'
tp271
a((lp272
F12.455
aF2.0049999999999999
aF2.2949999999999999
aF22.725000000000001
aF93
aF2.7925
aF3.3025000000000002
aF0.39500000000000002
aF1.9949999999999999
aF4.21
aF0.78749999999999998
aF2.9762500000000003
aF453.25
aS'2'
tp273
a((lp274
F13.879999999999999
aF3.2699999999999996
aF2.7625000000000002
aF20.299999999999997
aF116
aF2.0674999999999999
aF0.93250000000000011
aF0.52750000000000008
aF0.80624999999999991
aF7.1400000000000006
aF1.095
aF1.9525000000000001
aF803.75
aS'3'
tp275
a((lp276
F13.879999999999999
aF2.0049999999999999
aF2.5287500000000001
aF17.875
aF104.5
aF2.7925
aF3.3025000000000002
aF0.32874999999999999
aF1.9949999999999999
aF4.21
aF1.24875
aF1154.25
aS'1'
tp277
a((lp278
F12.93
aF3.9024999999999999
aF2.7625000000000002
aF22.725000000000001
aF116
aF1.7050000000000001
aF0.93250000000000011
aF0.66000000000000003
aF1.2024999999999999
aF5.6750000000000007
aF0.94124999999999992
aF2.2937500000000002
aF628.5
aS'3'
tp279
a((lp280
F13.879999999999999
aF2.0049999999999999
aF2.7625000000000002
aF17.875
aF104.5
aF2.7925
aF3.3025000000000002
aF0.26250000000000001
aF2.3912499999999999
aF5.6750000000000007
aF1.24875
aF3.6587499999999999
aF1329.5
aS'1'
tp281
a((lp282
F12.455
aF1.3725000000000001
aF2.2949999999999999
aF20.299999999999997
aF93
aF3.8799999999999999
aF3.895
aF0.26250000000000001
aF1.9949999999999999
aF5.6750000000000007
aF1.095
aF2.9762500000000003
aF803.75
aS'2'
tp283
a((lp284
F13.404999999999999
aF3.9024999999999999
aF2.2949999999999999
aF22.725000000000001
aF104.5
aF1.7050000000000001
aF0.93250000000000011
aF0.46125000000000005
aF1.5987499999999999
aF4.21
aF0.63375000000000004
aF1.9525000000000001
aF979
aS'3'
tp285
a((lp286
F13.404999999999999
aF2.0049999999999999
aF2.7625000000000002
aF27.574999999999996
aF127.5
aF2.4299999999999997
aF1.5250000000000001
aF0.26250000000000001
aF1.5987499999999999
aF7.1400000000000006
aF0.63375000000000004
aF1.6112500000000001
aF453.25
aS'3'
tp287
a((lp288
F14.355
aF2.0049999999999999
aF2.7625000000000002
aF25.149999999999999
aF104.5
aF3.1549999999999998
aF1.5250000000000001
aF0.59375
aF2.7875000000000001
aF0.63375000000000004
aF2.2937500000000002
aF803.75
aS'3'
tp289
a((lp290
F13.879999999999999
aF5.1674999999999995
aF2.5287500000000001
aF20.299999999999997
aF93
aF2.0674999999999999
aF0.93250000000000011
aF0.52750000000000008
aF1.2024999999999999
aF5.6750000000000007
aF0.94124999999999992
aF2.2937500000000002
aF628.5
aS'3'
tp291
a((lp292
F13.404999999999999
aF2.0049999999999999
aF2.2949999999999999
aF17.875
aF104.5
aF2.4299999999999997
aF2.71
aF0.32874999999999999
aF1.5987499999999999
aF4.21
aF1.095
aF2.9762500000000003
aF1329.5
aS'1'
tp293
a((lp294
F12.455
aF3.9024999999999999
aF2.0612500000000002
aF20.299999999999997
aF93
aF2.0674999999999999
aF2.1175000000000002
aF0.39500000000000002
aF1.9949999999999999
aF2.7450000000000001
aF0.94124999999999992
aF3.3174999999999999
aF628.5
aS'2'
tp295
a((lp296
F13.404999999999999
aF2.0049999999999999
aF2.7625000000000002
aF17.875
aF104.5
aF3.1549999999999998
aF3.3025000000000002
aF0.32874999999999999
aF1.9949999999999999
aF7.1400000000000006
aF1.095
aF2.9762500000000003
aF1329.5
aS'1'
tp297
a((lp298
F11.98
aF2.6375000000000002
aF2.9962499999999999
aF30
aF93
aF2.4299999999999997
aF2.71
aF0.59375
aF1.9949999999999999
aF4.21
aF1.095
aF2.6349999999999998
aF628.5
aS'2'
tp299
a((lp300
F13.404999999999999
aF2.0049999999999999
aF2.0612500000000002
aF13.024999999999999
aF93
aF2.7925
aF3.3025000000000002
aF0.19625000000000001
aF3.1837499999999999
aF8.6050000000000004
aF1.24875
aF2.9762500000000003
aF1154.25
aS'1'
tp301
a((lp302
F12.93
aF1.3725000000000001
aF2.5287500000000001
aF20.299999999999997
aF127.5
aF1.7050000000000001
aF1.5250000000000001
aF0.26250000000000001
aF1.2024999999999999
aF4.21
aF0.78749999999999998
aF1.6112500000000001
aF803.75
aS'3'
tp303
a((lp304
F12.455
aF3.9024999999999999
aF2.5287500000000001
aF22.725000000000001
aF93
aF2.4299999999999997
aF0.93250000000000011
aF0.52750000000000008
aF1.2024999999999999
aF8.6050000000000004
aF0.63375000000000004
aF1.6112500000000001
aF628.5
aS'3'
tp305
a((lp306
F12.93
aF3.9024999999999999
aF2.0612500000000002
aF17.875
aF81.5
aF1.7050000000000001
aF1.5250000000000001
aF0.46125000000000005
aF1.2024999999999999
aF4.21
aF0.78749999999999998
aF2.2937500000000002
aF453.25
aS'2'
tp307
a((lp308
F14.355
aF2.0049999999999999
aF2.2949999999999999
aF17.875
aF104.5
aF3.1549999999999998
aF3.895
aF0.26250000000000001
aF2.3912499999999999
aF7.1400000000000006
aF0.94124999999999992
aF3.6587499999999999
aF1154.25
aS'1'
tp309
a((lp310
F12.455
aF2.6375000000000002
aF2.2949999999999999
aF22.725000000000001
aF93
aF1.7050000000000001
aF2.1175000000000002
aF1.5987499999999999
aF2.7450000000000001
aF0.94124999999999992
aF3.3174999999999999
aF453.25
aS'2'
tp311
a((lp312
F13.404999999999999
aF2.6375000000000002
aF2.5287500000000001
aF20.299999999999997
aF127.5
aF1.7050000000000001
aF0.93250000000000011
aF0.59375
aF1.5987499999999999
aF10.07
aF0.63375000000000004
aF1.9525000000000001
aF979
aS'3'
tp313
a((lp314
F12.455
aF2.0049999999999999
aF2.5287500000000001
aF22.725000000000001
aF93
aF1.7050000000000001
aF1.5250000000000001
aF0.52750000000000008
aF1.9949999999999999
aF4.21
aF1.095
aF2.9762500000000003
aF453.25
aS'2'
tp315
a((lp316
F12.93
aF2.0049999999999999
aF2.0612500000000002
aF22.725000000000001
aF93
aF2.4299999999999997
aF2.1175000000000002
aF0.32874999999999999
aF1.5987499999999999
aF4.21
aF1.095
aF3.6587499999999999
aF803.75
aS'2'
tp317
a((lp318
F11.98
aF2.6375000000000002
aF30
aF127.5
aF3.5175000000000001
aF0.52750000000000008
aF1.9949999999999999
aF7.1400000000000006
aF0.94124999999999992
aF4
aF628.5
aS'2'
tp319
a((lp320
F14.83
aF2.0049999999999999
aF2.5287500000000001
aF17.875
aF116
aF3.8799999999999999
aF3.895
aF0.26250000000000001
aF2.3912499999999999
aF8.6050000000000004
aF0.94124999999999992
aF3.6587499999999999
aF1504.75
aS'1'
tp321
a((lp322
F14.83
aF2.0049999999999999
aF2.5287500000000001
aF13.024999999999999
aF93
aF3.1549999999999998
aF3.895
aF0.46125000000000005
aF3.1837499999999999
aF5.6750000000000007
aF1.4024999999999999
aF2.9762500000000003
aF1154.25
aS'1'
tp323
a((lp324
F12.455
aF3.2699999999999996
aF2.2949999999999999
aF20.299999999999997
aF93
aF3.1549999999999998
aF3.3025000000000002
aF0.46125000000000005
aF3.1837499999999999
aF2.7450000000000001
aF1.5562499999999999
aF2.9762500000000003
aF453.25
aS'2'
tp325
a((lp326
F13.879999999999999
aF2.0049999999999999
aF2.5287500000000001
aF17.875
aF116
aF3.5175000000000001
aF3.895
aF0.19625000000000001
aF2.3912499999999999
aF7.1400000000000006
aF0.94124999999999992
aF2.9762500000000003
aF1329.5
aS'1'
tp327
a((lp328
F12.455
aF3.2699999999999996
aF2.7625000000000002
aF27.574999999999996
aF104.5
aF2.0674999999999999
aF0.93250000000000011
aF0.66000000000000003
aF1.2024999999999999
aF8.6050000000000004
aF0.78749999999999998
aF1.9525000000000001
aF979
aS'3'
tp329
a((lp330
F11.98
aF2.0049999999999999
aF2.0612500000000002
aF22.725000000000001
aF93
aF2.0674999999999999
aF2.1175000000000002
aF0.32874999999999999
aF1.5987499999999999
aF2.7450000000000001
aF1.095
aF3.6587499999999999
aF628.5
aS'2'
tp331
a((lp332
F11.504999999999999
aF2.0049999999999999
aF2.2949999999999999
aF22.725000000000001
aF93
aF2.7925
aF2.71
aF0.52750000000000008
aF2.3912499999999999
aF2.7450000000000001
aF2.9762500000000003
aF453.25
aS'2'
tp333
a((lp334
F13.404999999999999
aF3.2699999999999996
aF2.5287500000000001
aF22.725000000000001
aF93
aF2.0674999999999999
aF0.93250000000000011
aF0.46125000000000005
aF1.5987499999999999
aF8.6050000000000004
aF0.63375000000000004
aF1.9525000000000001
aF803.75
aS'3'
tp335
a((lp336
F13.404999999999999
aF2.2949999999999999
aF22.725000000000001
aF93
aF2.7925
aF2.71
aF0.32874999999999999
aF2.3912499999999999
aF2.7450000000000001
aF0.78749999999999998
aF3.3174999999999999
aF453.25
aS'2'
tp337
a((lp338
F13.404999999999999
aF2.0049999999999999
aF2.2949999999999999
aF13.024999999999999
aF104.5
aF2.7925
aF3.3025000000000002
aF0.26250000000000001
aF1.5987499999999999
aF5.6750000000000007
aF1.095
aF3.6587499999999999
aF1154.25
aS'1'
tp339
a((lp340
F12.455
aF2.0049999999999999
aF2.5287500000000001
aF25.149999999999999
aF93
aF2.0674999999999999
aF2.1175000000000002
aF0.46125000000000005
aF1.5987499999999999
aF2.7450000000000001
aF1.4024999999999999
aF2.2937500000000002
aF628.5
aS'2'
tp341
a((lp342
F14.83
aF2.0049999999999999
aF2.5287500000000001
aF13.024999999999999
aF104.5
aF3.5175000000000001
aF3.895
aF0.32874999999999999
aF3.1837499999999999
aF8.6050000000000004
aF1.24875
aF3.3174999999999999
aF1680
aS'1'
tp343
a((lp344
F12.455
aF2.0049999999999999
aF2.2949999999999999
aF20.299999999999997
aF81.5
aF1.7050000000000001
aF2.1175000000000002
aF0.39500000000000002
aF1.9949999999999999
aF4.21
aF1.095
aF3.3174999999999999
aF628.5
aS'2'
tp345
a((lp346
F11.98
aF3.2699999999999996
aF2.9962499999999999
aF20.299999999999997
aF104.5
aF2.0674999999999999
aF2.1175000000000002
aF0.66000000000000003
aF1.2024999999999999
aF4.21
aF1.24875
aF2.6349999999999998
aF628.5
aS'2'
tp347
a((lp348
F12.93
aF2.6375000000000002
aF2.2949999999999999
aF20.299999999999997
aF93
aF1.7050000000000001
aF0.93250000000000011
aF0.52750000000000008
aF0.80624999999999991
aF10.07
aF0.63375000000000004
aF1.9525000000000001
aF628.5
aS'3'
tp349
a((lp350
F14.355
aF4.5350000000000001
aF2.5287500000000001
aF20.299999999999997
aF116
aF3.1549999999999998
aF2.71
aF0.32874999999999999
aF1.5987499999999999
aF5.6750000000000007
aF0.94124999999999992
aF3.6587499999999999
aF1154.25
aS'1'
tp351
a((lp352
F13.879999999999999
aF3.2699999999999996
aF2.7625000000000002
aF15.449999999999999
aF127.5
aF2.7925
aF3.3025000000000002
aF0.19625000000000001
aF1.9949999999999999
aF5.6750000000000007
aF1.095
aF3.6587499999999999
aF979
aS'1'
tp353
a((lp354
F11.98
aF2.0049999999999999
aF2.7625000000000002
aF27.574999999999996
aF93
aF2.0674999999999999
aF2.1175000000000002
aF0.46125000000000005
aF1.5987499999999999
aF2.7450000000000001
aF1.4024999999999999
aF3.3174999999999999
aF628.5
aS'2'
tp355
a((lp356
F13.404999999999999
aF3.2699999999999996
aF2.7625000000000002
aF22.725000000000001
aF104.5
aF1.7050000000000001
aF0.93250000000000011
aF0.59375
aF0.80624999999999991
aF5.6750000000000007
aF0.78749999999999998
aF2.6349999999999998
aF628.5
aS'3'
tp357
a.