(lp1
((lp2
F12.115714285714285
aF1.4628571428571426
aF2.4285714285714288
aF24.457142857142856
aF83.142857142857139
aF2.2228571428571429
aF1.6942857142857144
aF0.43285714285714288
aF1.7685714285714285
aF2.9542857142857146
aF1.1828571428571428
aF3.2200000000000002
aF678.57142857142856
aS'2'
tp3
a((lp4
F13.744285714285713
aF3.6314285714285708
aF2.4285714285714288
aF18.914285714285711
aF109.42857142857143
aF1.8085714285714285
aF1.0171428571428571
aF0.66000000000000003
aF2.2214285714285715
aF11.325714285714286
aF0.65571428571428569
aF1.6600000000000001
aF678.57142857142856
aS'3'
tp5
a((lp6
F13.201428571428572
aF3.6314285714285708
aF2.6957142857142857
aF24.457142857142856
aF109.42857142857143
aF2.637142857142857
aF1.0171428571428571
aF0.5842857142857143
aF0.86285714285714277
aF6.3028571428571434
aF1.0071428571428571
aF2.4399999999999999
aF678.57142857142856
aS'3'
tp7
a((lp8
F14.287142857142857
aF2.1857142857142855
aF2.4285714285714288
aF16.142857142857142
aF135.71428571428572
aF3.0514285714285712
aF3.7257142857142855
aF0.28142857142857147
aF2.2214285714285715
aF6.3028571428571434
aF1.1828571428571428
aF4
aF878.85714285714289
aS'1'
tp9
a((lp10
F14.287142857142857
aF2.1857142857142855
aF2.4285714285714288
aF16.142857142857142
aF122.57142857142857
aF4.402857142857143
aF0.35714285714285715
aF2.2214285714285715
aF7.9771428571428578
aF1.1828571428571428
aF3.6099999999999999
aF1279.4285714285713
aS'1'
tp11
a((lp12
F13.744285714285713
aF2.1857142857142855
aF2.6957142857142857
aF21.685714285714283
aF96.285714285714278
aF2.637142857142857
aF3.0485714285714285
aF0.28142857142857147
aF1.7685714285714285
aF4.628571428571429
aF1.1828571428571428
aF4
aF878.85714285714289
aS'1'
tp13
a((lp14
F13.201428571428572
aF2.1857142857142855
aF2.4285714285714288
aF24.457142857142856
aF96.285714285714278
aF1.3942857142857141
aF2.3714285714285714
aF0.50857142857142867
aF1.7685714285714285
aF4.628571428571429
aF1.0071428571428571
aF2.4399999999999999
aF678.57142857142856
aS'2'
tp15
a((lp16
F11.572857142857142
aF4.3542857142857141
aF1.8942857142857144
aF21.685714285714283
aF109.42857142857143
aF3.4657142857142857
aF3.0485714285714285
aF0.28142857142857147
aF2.9542857142857146
aF0.83142857142857141
aF2.8300000000000001
aF678.57142857142856
aS'2'
tp17
a((lp18
F2.1857142857142855
aF2.4285714285714288
aF16.142857142857142
aF109.42857142857143
aF3.0514285714285712
aF3.0485714285714285
aF0.35714285714285715
aF2.2214285714285715
aF6.3028571428571434
aF1.1828571428571428
aF3.2200000000000002
aF1079.1428571428571
aS'1'
tp19
a((lp20
F12.115714285714285
aF1.4628571428571426
aF2.6957142857142857
aF18.914285714285711
aF96.285714285714278
aF2.2228571428571429
aF2.3714285714285714
aF0.28142857142857147
aF2.6742857142857144
aF4.628571428571429
aF0.83142857142857141
aF3.2200000000000002
aF678.57142857142856
aS'2'
tp21
a((lp22
F14.287142857142857
aF1.4628571428571426
aF2.4285714285714288
aF16.142857142857142
aF109.42857142857143
aF3.0514285714285712
aF3.7257142857142855
aF0.28142857142857147
aF2.2214285714285715
aF7.9771428571428578
aF1.1828571428571428
aF3.6099999999999999
aF1079.1428571428571
aS'1'
tp23
a((lp24
F13.744285714285713
aF5.0771428571428565
aF2.9628571428571426
aF27.228571428571428
aF122.57142857142857
aF2.2228571428571429
aF1.0171428571428571
aF0.28142857142857147
aF1.3157142857142856
aF9.6514285714285712
aF0.83142857142857141
aF2.0499999999999998
aF678.57142857142856
aS'3'
tp25
a((lp26
F13.744285714285713
aF4.3542857142857141
aF2.4285714285714288
aF21.685714285714283
aF122.57142857142857
aF1.8085714285714285
aF1.0171428571428571
aF0.43285714285714288
aF1.7685714285714285
aF11.325714285714286
aF0.65571428571428569
aF1.6600000000000001
aF878.85714285714289
aS'3'
tp27
a((lp28
F12.658571428571427
aF2.9085714285714284
aF2.6957142857142857
aF21.685714285714283
aF109.42857142857143
aF2.637142857142857
aF2.3714285714285714
aF0.35714285714285715
aF1.3157142857142856
aF2.9542857142857146
aF0.83142857142857141
aF3.6099999999999999
aF478.28571428571428
aS'2'
tp29
a((lp30
F13.201428571428572
aF2.9085714285714284
aF2.6957142857142857
aF18.914285714285711
aF109.42857142857143
aF3.0514285714285712
aF3.7257142857142855
aF0.35714285714285715
aF3.1271428571428572
aF6.3028571428571434
aF1.1828571428571428
aF3.2200000000000002
aF1279.4285714285713
aS'1'
tp31
a((lp32
F14.83
aF2.1857142857142855
aF2.9628571428571426
aF21.685714285714283
aF122.57142857142857
aF3.0514285714285712
aF3.7257142857142855
aF0.35714285714285715
aF2.2214285714285715
aF6.3028571428571434
aF1.1828571428571428
aF2.8300000000000001
aF1479.7142857142858
aS'1'
tp33
a((lp34
F14.287142857142857
aF2.1857142857142855
aF2.4285714285714288
aF18.914285714285711
aF109.42857142857143
aF3.0514285714285712
aF3.7257142857142855
aF0.35714285714285715
aF2.2214285714285715
aF9.6514285714285712
aF1.1828571428571428
aF3.2200000000000002
aF1279.4285714285713
aS'1'
tp35
a((lp36
F12.658571428571427
aF2.1857142857142855
aF2.4285714285714288
aF27.228571428571428
aF96.285714285714278
aF2.2228571428571429
aF3.0485714285714285
aF0.43285714285714288
aF2.2214285714285715
aF2.9542857142857146
aF1.0071428571428571
aF2.8300000000000001
aF478.28571428571428
aS'2'
tp37
a((lp38
F12.658571428571427
aF5.0771428571428565
aF2.9628571428571426
aF27.228571428571428
aF109.42857142857143
aF2.2228571428571429
aF2.3714285714285714
aF0.43285714285714288
aF1.7685714285714285
aF2.9542857142857146
aF1.0071428571428571
aF3.2200000000000002
aF478.28571428571428
aS'2'
tp39
a((lp40
F13.744285714285713
aF4.3542857142857141
aF2.6957142857142857
aF24.457142857142856
aF109.42857142857143
aF1.8085714285714285
aF1.0171428571428571
aF0.43285714285714288
aF1.7685714285714285
aF7.9771428571428578
aF0.83142857142857141
aF1.6600000000000001
aF878.85714285714289
aS'3'
tp41
a((lp42
F13.201428571428572
aF2.1857142857142855
aF2.4285714285714288
aF21.685714285714283
aF83.142857142857139
aF1.3942857142857141
aF1.6942857142857144
aF0.5842857142857143
aF1.7685714285714285
aF4.628571428571429
aF1.0071428571428571
aF2.4399999999999999
aF678.57142857142856
aS'2'
tp43
a((lp44
F12.115714285714285
aF2.9085714285714284
aF2.4285714285714288
aF18.914285714285711
aF122.57142857142857
aF1.8085714285714285
aF1.6942857142857144
aF0.43285714285714288
aF1.3157142857142856
aF2.9542857142857146
aF1.0071428571428571
aF2.8300000000000001
aF678.57142857142856
aS'2'
tp45
a((lp46
F11.572857142857142
aF2.9085714285714284
aF2.4285714285714288
aF21.685714285714283
aF96.285714285714278
aF3.0514285714285712
aF3.0485714285714285
aF0.35714285714285715
aF2.2214285714285715
aF4.628571428571429
aF0.83142857142857141
aF3.6099999999999999
aF678.57142857142856
aS'2'
tp47
a((lp48
F14.287142857142857
aF2.1857142857142855
aF2.6957142857142857
aF16.142857142857142
aF135.71428571428572
aF3.0514285714285712
aF3.7257142857142855
aF0.28142857142857147
aF2.6742857142857144
aF6.3028571428571434
aF1.1828571428571428
aF4
aF1079.1428571428571
aS'1'
tp49
a((lp50
F14.287142857142857
aF2.9085714285714284
aF2.6957142857142857
aF21.685714285714283
aF96.285714285714278
aF1.8085714285714285
aF1.0171428571428571
aF0.50857142857142867
aF1.3157142857142856
aF11.325714285714286
aF0.65571428571428569
aF2.0499999999999998
aF678.57142857142856
aS'3'
tp51
a((lp52
F14.287142857142857
aF2.1857142857142855
aF2.6957142857142857
aF18.914285714285711
aF122.57142857142857
aF2.637142857142857
aF3.0485714285714285
aF0.35714285714285715
aF1.3157142857142856
aF6.3028571428571434
aF1.1828571428571428
aF3.6099999999999999
aF1479.7142857142858
aS'1'
tp53
a((lp54
F13.744285714285713
aF2.1857142857142855
aF2.9628571428571426
aF24.457142857142856
aF109.42857142857143
aF3.0514285714285712
aF3.7257142857142855
aF0.35714285714285715
aF2.6742857142857144
aF6.3028571428571434
aF1.3585714285714285
aF2.8300000000000001
aF1479.7142857142858
aS'1'
tp55
a((lp56
F12.115714285714285
aF1.4628571428571426
aF2.6957142857142857
aF24.457142857142856
aF96.285714285714278
aF2.637142857142857
aF2.3714285714285714
aF0.43285714285714288
aF1.3157142857142856
aF2.9542857142857146
aF1.0071428571428571
aF3.2200000000000002
aF478.28571428571428
aS'2'
tp57
a((lp58
F12.658571428571427
aF4.3542857142857141
aF2.4285714285714288
aF18.914285714285711
aF122.57142857142857
aF1.3942857142857141
aF1.0171428571428571
aF0.35714285714285715
aF1.3157142857142856
aF9.6514285714285712
aF0.65571428571428569
aF2.0499999999999998
aF878.85714285714289
aS'3'
tp59
a((lp60
F13.201428571428572
aF3.6314285714285708
aF2.4285714285714288
aF21.685714285714283
aF109.42857142857143
aF1.3942857142857141
aF1.6942857142857144
aF0.28142857142857147
aF0.86285714285714277
aF6.3028571428571434
aF0.83142857142857141
aF1.6600000000000001
aF678.57142857142856
aS'3'
tp61
a((lp62
F13.201428571428572
aF3.6314285714285708
aF2.4285714285714288
aF21.685714285714283
aF109.42857142857143
aF1.8085714285714285
aF1.6942857142857144
aF0.20571428571428574
aF0.86285714285714277
aF6.3028571428571434
aF0.83142857142857141
aF1.6600000000000001
aF678.57142857142856
aS'3'
tp63
a((lp64
F14.287142857142857
aF2.1857142857142855
aF2.6957142857142857
aF21.685714285714283
aF122.57142857142857
aF3.0514285714285712
aF3.7257142857142855
aF0.43285714285714288
aF1.7685714285714285
aF7.9771428571428578
aF1.1828571428571428
aF2.8300000000000001
aF1279.4285714285713
aS'1'
tp65
a((lp66
F13.201428571428572
aF2.1857142857142855
aF2.6957142857142857
aF18.914285714285711
aF109.42857142857143
aF2.637142857142857
aF3.0485714285714285
aF0.35714285714285715
aF1.7685714285714285
aF4.628571428571429
aF1.1828571428571428
aF2.8300000000000001
aF1279.4285714285713
aS'1'
tp67
a((lp68
F14.287142857142857
aF2.1857142857142855
aF2.6957142857142857
aF16.142857142857142
aF109.42857142857143
aF3.4657142857142857
aF3.7257142857142855
aF0.20571428571428574
aF1.7685714285714285
aF6.3028571428571434
aF1.0071428571428571
aF3.6099999999999999
aF1279.4285714285713
aS'1'
tp69
a((lp70
F13.201428571428572
aF5.7999999999999998
aF2.4285714285714288
aF24.457142857142856
aF96.285714285714278
aF1.8085714285714285
aF1.0171428571428571
aF0.66000000000000003
aF1.7685714285714285
aF7.9771428571428578
aF0.65571428571428569
aF1.6600000000000001
aF878.85714285714289
aS'3'
tp71
a((lp72
F12.115714285714285
aF1.4628571428571426
aF2.4285714285714288
aF21.685714285714283
aF109.42857142857143
aF3.4657142857142857
aF2.3714285714285714
aF0.20571428571428574
aF1.7685714285714285
aF4.628571428571429
aF1.0071428571428571
aF3.2200000000000002
aF1079.1428571428571
aS'2'
tp73
a((lp74
F12.658571428571427
aF1.4628571428571426
aF2.1614285714285715
aF18.914285714285711
aF96.285714285714278
aF1.8085714285714285
aF1.6942857142857144
aF0.35714285714285715
aF1.7685714285714285
aF2.9542857142857146
aF1.1828571428571428
aF2.8300000000000001
aF678.57142857142856
aS'2'
tp75
a((lp76
F13.201428571428572
aF5.0771428571428565
aF2.6957142857142857
aF21.685714285714283
aF96.285714285714278
aF1.8085714285714285
aF1.0171428571428571
aF0.50857142857142867
aF0.86285714285714277
aF7.9771428571428578
aF0.65571428571428569
aF2.0499999999999998
aF678.57142857142856
aS'3'
tp77
a((lp78
F14.287142857142857
aF4.3542857142857141
aF2.6957142857142857
aF13.37142857142857
aF135.71428571428572
aF3.0514285714285712
aF3.0485714285714285
aF0.20571428571428574
aF2.2214285714285715
aF6.3028571428571434
aF1.0071428571428571
aF3.6099999999999999
aF878.85714285714289
aS'1'
tp79
a((lp80
F13.744285714285713
aF2.1857142857142855
aF2.4285714285714288
aF21.685714285714283
aF109.42857142857143
aF3.0514285714285712
aF3.0485714285714285
aF0.28142857142857147
aF2.2214285714285715
aF6.3028571428571434
aF1.1828571428571428
aF3.6099999999999999
aF1079.1428571428571
aS'1'
tp81
a((lp82
F12.115714285714285
aF2.1857142857142855
aF2.1614285714285715
aF16.142857142857142
aF109.42857142857143
aF1.8085714285714285
aF1.6942857142857144
aF0.35714285714285715
aF1.3157142857142856
aF4.628571428571429
aF1.3585714285714285
aF2.4399999999999999
aF478.28571428571428
aS'2'
tp83
a((lp84
F13.744285714285713
aF5.0771428571428565
aF2.4285714285714288
aF24.457142857142856
aF96.285714285714278
aF1.3942857142857141
aF1.0171428571428571
aF0.5842857142857143
aF1.3157142857142856
aF7.9771428571428578
aF0.83142857142857141
aF2.0499999999999998
aF678.57142857142856
aS'3'
tp85
a((lp86
F12.658571428571427
aF1.4628571428571426
aF2.1614285714285715
aF18.914285714285711
aF109.42857142857143
aF2.2228571428571429
aF1.6942857142857144
aF0.5842857142857143
aF0.86285714285714277
aF6.3028571428571434
aF1.0071428571428571
aF1.6600000000000001
aF478.28571428571428
aS'2'
tp87
a((lp88
F13.744285714285713
aF2.1857142857142855
aF2.4285714285714288
aF18.914285714285711
aF122.57142857142857
aF2.637142857142857
aF3.0485714285714285
aF0.28142857142857147
aF1.7685714285714285
aF6.3028571428571434
aF1.0071428571428571
aF3.2200000000000002
aF1079.1428571428571
aS'1'
tp89
a((lp90
F14.287142857142857
aF2.1857142857142855
aF2.4285714285714288
aF18.914285714285711
aF122.57142857142857
aF3.4657142857142857
aF3.0485714285714285
aF0.28142857142857147
aF2.2214285714285715
aF7.9771428571428578
aF1.0071428571428571
aF3.6099999999999999
aF1079.1428571428571
aS'1'
tp91
a((lp92
F13.744285714285713
aF2.9085714285714284
aF2.9628571428571426
aF21.685714285714283
aF122.57142857142857
aF3.0514285714285712
aF3.0485714285714285
aF0.43285714285714288
aF2.2214285714285715
aF4.628571428571429
aF1.1828571428571428
aF3.2200000000000002
aF878.85714285714289
aS'1'
tp93
a((lp94
F12.115714285714285
aF4.3542857142857141
aF2.4285714285714288
aF21.685714285714283
aF83.142857142857139
aF3.0514285714285712
aF3.0485714285714285
aF0.28142857142857147
aF3.1271428571428572
aF2.9542857142857146
aF0.83142857142857141
aF4
aF478.28571428571428
aS'2'
tp95
a((lp96
F12.658571428571427
aF1.4628571428571426
aF2.1614285714285715
aF21.685714285714283
aF96.285714285714278
aF3.8799999999999999
aF3.7257142857142855
aF0.20571428571428574
aF2.2214285714285715
aF4.628571428571429
aF1.3585714285714285
aF3.2200000000000002
aF478.28571428571428
aS'2'
tp97
a((lp98
F13.744285714285713
aF3.6314285714285708
aF2.4285714285714288
aF21.685714285714283
aF96.285714285714278
aF1.8085714285714285
aF1.0171428571428571
aF0.5842857142857143
aF1.3157142857142856
aF6.3028571428571434
aF0.83142857142857141
aF2.0499999999999998
aF678.57142857142856
aS'3'
tp99
a((lp100
F13.744285714285713
aF2.9085714285714284
aF2.4285714285714288
aF21.685714285714283
aF96.285714285714278
aF1.8085714285714285
aF1.0171428571428571
aF0.43285714285714288
aF0.86285714285714277
aF6.3028571428571434
aF0.83142857142857141
aF2.8300000000000001
aF878.85714285714289
aS'3'
tp101
a((lp102
F12.658571428571427
aF2.9085714285714284
aF2.4285714285714288
aF21.685714285714283
aF96.285714285714278
aF2.637142857142857
aF2.3714285714285714
aF0.28142857142857147
aF1.3157142857142856
aF2.9542857142857146
aF1.0071428571428571
aF2.8300000000000001
aF478.28571428571428
aS'2'
tp103
a((lp104
F13.744285714285713
aF2.1857142857142855
aF2.6957142857142857
aF21.685714285714283
aF122.57142857142857
aF3.0514285714285712
aF3.0485714285714285
aF0.20571428571428574
aF2.6742857142857144
aF6.3028571428571434
aF1.0071428571428571
aF3.2200000000000002
aF1279.4285714285713
aS'1'
tp105
a((lp106
F14.287142857142857
aF2.1857142857142855
aF2.4285714285714288
aF18.914285714285711
aF96.285714285714278
aF2.2228571428571429
aF3.0485714285714285
aF0.28142857142857147
aF1.7685714285714285
aF6.3028571428571434
aF1.1828571428571428
aF2.8300000000000001
aF1479.7142857142858
aS'1'
tp107
a((lp108
F12.658571428571427
aF1.4628571428571426
aF2.1614285714285715
aF16.142857142857142
aF148.85714285714286
aF2.2228571428571429
aF2.3714285714285714
aF0.35714285714285715
aF3.1271428571428572
aF4.628571428571429
aF1.1828571428571428
aF2.4399999999999999
aF878.85714285714289
aS'2'
tp109
a((lp110
F14.287142857142857
aF2.1857142857142855
aF2.6957142857142857
aF18.914285714285711
aF122.57142857142857
aF3.0514285714285712
aF3.0485714285714285
aF0.43285714285714288
aF1.7685714285714285
aF6.3028571428571434
aF1.1828571428571428
aF3.2200000000000002
aF1479.7142857142858
aS'1'
tp111
a((lp112
F14.287142857142857
aF2.1857142857142855
aF2.6957142857142857
aF16.142857142857142
aF122.57142857142857
aF3.4657142857142857
aF3.7257142857142855
aF0.35714285714285715
aF2.2214285714285715
aF7.9771428571428578
aF1.1828571428571428
aF3.2200000000000002
aF1479.7142857142858
aS'1'
tp113
a((lp114
F13.744285714285713
aF2.9085714285714284
aF2.6957142857142857
aF27.228571428571428
aF109.42857142857143
aF1.8085714285714285
aF1.0171428571428571
aF0.43285714285714288
aF1.7685714285714285
aF9.6514285714285712
aF0.83142857142857141
aF2.0499999999999998
aF878.85714285714289
aS'3'
tp115
a((lp116
F12.658571428571427
aF1.4628571428571426
aF2.1614285714285715
aF16.142857142857142
aF96.285714285714278
aF2.637142857142857
aF3.0485714285714285
aF0.35714285714285715
aF2.2214285714285715
aF2.9542857142857146
aF1.3585714285714285
aF2.8300000000000001
aF478.28571428571428
aS'2'
tp117
a((lp118
F13.201428571428572
aF2.1857142857142855
aF2.6957142857142857
aF148.85714285714286
aF3.4657142857142857
aF3.0485714285714285
aF0.28142857142857147
aF2.2214285714285715
aF4.628571428571429
aF1.3585714285714285
aF3.6099999999999999
aF1079.1428571428571
aS'2'
tp119
a((lp120
F14.287142857142857
aF5.0771428571428565
aF2.4285714285714288
aF21.685714285714283
aF83.142857142857139
aF1.3942857142857141
aF1.0171428571428571
aF0.43285714285714288
aF0.86285714285714277
aF6.3028571428571434
aF0.65571428571428569
aF1.6600000000000001
aF478.28571428571428
aS'3'
tp121
a((lp122
F13.201428571428572
aF2.9085714285714284
aF2.4285714285714288
aF24.457142857142856
aF109.42857142857143
aF1.3942857142857141
aF1.6942857142857144
aF0.28142857142857147
aF0.86285714285714277
aF6.3028571428571434
aF0.83142857142857141
aF1.6600000000000001
aF678.57142857142856
aS'3'
tp123
a((lp124
F14.287142857142857
aF2.1857142857142855
aF2.6957142857142857
aF27.228571428571428
aF96.285714285714278
aF3.0514285714285712
aF3.0485714285714285
aF0.28142857142857147
aF2.2214285714285715
aF4.628571428571429
aF1.5342857142857143
aF3.2200000000000002
aF478.28571428571428
aS'2'
tp125
a((lp126
F13.201428571428572
aF4.3542857142857141
aF2.4285714285714288
aF21.685714285714283
aF122.57142857142857
aF1.8085714285714285
aF1.6942857142857144
aF0.35714285714285715
aF1.3157142857142856
aF9.6514285714285712
aF0.65571428571428569
aF1.6600000000000001
aF678.57142857142856
aS'3'
tp127
a((lp128
F12.658571428571427
aF1.4628571428571426
aF2.6957142857142857
aF21.685714285714283
aF109.42857142857143
aF2.2228571428571429
aF2.3714285714285714
aF0.50857142857142867
aF1.3157142857142856
aF2.9542857142857146
aF1.5342857142857143
aF2.4399999999999999
aF478.28571428571428
aS'2'
tp129
a((lp130
F13.201428571428572
aF4.3542857142857141
aF2.4285714285714288
aF24.457142857142856
aF96.285714285714278
aF1.8085714285714285
aF1.6942857142857144
aF0.66000000000000003
aF1.7685714285714285
aF6.3028571428571434
aF1.0071428571428571
aF2.0499999999999998
aF678.57142857142856
aS'2'
tp131
a((lp132
F12.658571428571427
aF2.9085714285714284
aF2.4285714285714288
aF18.914285714285711
aF96.285714285714278
aF2.637142857142857
aF2.3714285714285714
aF0.28142857142857147
aF2.2214285714285715
aF2.9542857142857146
aF1.1828571428571428
aF3.6099999999999999
aF478.28571428571428
aS'2'
tp133
a((lp134
F14.287142857142857
aF2.1857142857142855
aF2.4285714285714288
aF16.142857142857142
aF96.285714285714278
aF3.0514285714285712
aF2.3714285714285714
aF0.28142857142857147
aF2.2214285714285715
aF6.3028571428571434
aF1.1828571428571428
aF3.6099999999999999
aF1079.1428571428571
aS'1'
tp135
a((lp136
F13.744285714285713
aF2.1857142857142855
aF2.6957142857142857
aF24.457142857142856
aF96.285714285714278
aF2.637142857142857
aF1.6942857142857144
aF0.5842857142857143
aF2.6742857142857144
aF13
aF0.65571428571428569
aF2.0499999999999998
aF678.57142857142856
aS'3'
tp137
a((lp138
F12.658571428571427
aF5.0771428571428565
aF2.6957142857142857
aF21.685714285714283
aF96.285714285714278
aF1.3942857142857141
aF1.0171428571428571
aF0.5842857142857143
aF0.86285714285714277
aF4.628571428571429
aF0.83142857142857141
aF1.6600000000000001
aF878.85714285714289
aS'3'
tp139
a((lp140
F12.115714285714285
aF2.1857142857142855
aF2.9628571428571426
aF21.685714285714283
aF135.71428571428572
aF1.8085714285714285
aF1.0171428571428571
aF0.20571428571428574
aF1.7685714285714285
aF2.9542857142857146
aF1.0071428571428571
aF2.4399999999999999
aF678.57142857142856
aS'2'
tp141
a((lp142
F12.115714285714285
aF2.1857142857142855
aF1.8942857142857144
aF18.914285714285711
aF109.42857142857143
aF2.637142857142857
aF2.3714285714285714
aF0.28142857142857147
aF1.7685714285714285
aF4.628571428571429
aF1.3585714285714285
aF3.2200000000000002
aF878.85714285714289
aS'2'
tp143
a((lp144
F14.287142857142857
aF2.9085714285714284
aF2.4285714285714288
aF24.457142857142856
aF96.285714285714278
aF1.3942857142857141
aF1.0171428571428571
aF0.43285714285714288
aF1.3157142857142856
aF9.6514285714285712
aF0.83142857142857141
aF2.0499999999999998
aF678.57142857142856
aS'3'
tp145
a((lp146
F12.115714285714285
aF1.4628571428571426
aF2.1614285714285715
aF21.685714285714283
aF96.285714285714278
aF2.637142857142857
aF2.3714285714285714
aF0.35714285714285715
aF1.7685714285714285
aF2.9542857142857146
aF1.5342857142857143
aF3.2200000000000002
aF478.28571428571428
aS'2'
tp147
a((lp148
F14.287142857142857
aF2.1857142857142855
aF2.4285714285714288
aF16.142857142857142
aF96.285714285714278
aF2.637142857142857
aF3.0485714285714285
aF0.35714285714285715
aF2.2214285714285715
aF6.3028571428571434
aF1.1828571428571428
aF3.2200000000000002
aF1479.7142857142858
aS'1'
tp149
a((lp150
F12.658571428571427
aF2.1857142857142855
aF2.4285714285714288
aF21.685714285714283
aF109.42857142857143
aF1.3942857142857141
aF1.6942857142857144
aF0.43285714285714288
aF1.7685714285714285
aF4.628571428571429
aF1.0071428571428571
aF2.0499999999999998
aF878.85714285714289
aS'2'
tp151
a((lp152
F13.744285714285713
aF3.6314285714285708
aF2.6957142857142857
aF24.457142857142856
aF135.71428571428572
aF1.8085714285714285
aF1.6942857142857144
aF0.28142857142857147
aF1.3157142857142856
aF9.6514285714285712
aF0.65571428571428569
aF1.6600000000000001
aF678.57142857142856
aS'3'
tp153
a((lp154
F13.744285714285713
aF2.1857142857142855
aF2.9628571428571426
aF18.914285714285711
aF122.57142857142857
aF3.0514285714285712
aF3.0485714285714285
aF0.35714285714285715
aF1.7685714285714285
aF7.9771428571428578
aF1.3585714285714285
aF3.2200000000000002
aF1479.7142857142858
aS'1'
tp155
a((lp156
F12.658571428571427
aF1.4628571428571426
aF2.1614285714285715
aF21.685714285714283
aF96.285714285714278
aF2.637142857142857
aF2.3714285714285714
aF0.43285714285714288
aF2.2214285714285715
aF2.9542857142857146
aF1.0071428571428571
aF3.2200000000000002
aF478.28571428571428
aS'2'
tp157
a((lp158
F13.744285714285713
aF2.1857142857142855
aF2.4285714285714288
aF18.914285714285711
aF122.57142857142857
aF3.4657142857142857
aF3.7257142857142855
aF0.35714285714285715
aF2.6742857142857144
aF6.3028571428571434
aF1.0071428571428571
aF3.6099999999999999
aF878.85714285714289
aS'1'
tp159
a((lp160
F13.201428571428572
aF2.1857142857142855
aF2.4285714285714288
aF18.914285714285711
aF96.285714285714278
aF2.2228571428571429
aF3.0485714285714285
aF0.28142857142857147
aF2.2214285714285715
aF4.628571428571429
aF1.1828571428571428
aF3.2200000000000002
aF878.85714285714289
aS'2'
tp161
a((lp162
F14.287142857142857
aF2.1857142857142855
aF2.9628571428571426
aF21.685714285714283
aF135.71428571428572
aF3.0514285714285712
aF3.0485714285714285
aF0.50857142857142867
aF1.7685714285714285
aF6.3028571428571434
aF1.3585714285714285
aF3.2200000000000002
aF1279.4285714285713
aS'1'
tp163
a((lp164
F13.201428571428572
aF3.6314285714285708
aF2.4285714285714288
aF21.685714285714283
aF96.285714285714278
aF1.8085714285714285
aF1.0171428571428571
aF0.43285714285714288
aF1.3157142857142856
aF11.325714285714286
aF0.83142857142857141
aF2.0499999999999998
aF878.85714285714289
aS'3'
tp165
a((lp166
F12.658571428571427
aF1.4628571428571426
aF1.8942857142857144
aF18.914285714285711
aF162
aF2.2228571428571429
aF1.6942857142857144
aF0.20571428571428574
aF2.6742857142857144
aF2.9542857142857146
aF1.3585714285714285
aF3.2200000000000002
aF878.85714285714289
aS'2'
tp167
a((lp168
F14.83
aF3.6314285714285708
aF2.4285714285714288
aF16.142857142857142
aF109.42857142857143
aF3.4657142857142857
aF3.7257142857142855
aF0.28142857142857147
aF2.2214285714285715
aF6.3028571428571434
aF1.1828571428571428
aF3.6099999999999999
aF1079.1428571428571
aS'1'
tp169
a((lp170
F12.658571428571427
aF1.4628571428571426
aF2.4285714285714288
aF16.142857142857142
aF109.42857142857143
aF2.2228571428571429
aF1.6942857142857144
aF0.66000000000000003
aF0.86285714285714277
aF4.628571428571429
aF1.3585714285714285
aF2.0499999999999998
aF878.85714285714289
aS'2'
tp171
a((lp172
F13.744285714285713
aF2.1857142857142855
aF2.6957142857142857
aF16.142857142857142
aF96.285714285714278
aF3.0514285714285712
aF3.0485714285714285
aF0.35714285714285715
aF1.7685714285714285
aF6.3028571428571434
aF1.0071428571428571
aF3.6099999999999999
aF1279.4285714285713
aS'1'
tp173
a((lp174
F12.115714285714285
aF4.3542857142857141
aF2.4285714285714288
aF24.457142857142856
aF83.142857142857139
aF2.2228571428571429
aF2.3714285714285714
aF0.43285714285714288
aF1.7685714285714285
aF2.9542857142857146
aF0.83142857142857141
aF2.8300000000000001
aF678.57142857142856
aS'2'
tp175
a((lp176
F14.83
aF2.1857142857142855
aF2.6957142857142857
aF16.142857142857142
aF96.285714285714278
aF2.637142857142857
aF3.0485714285714285
aF0.35714285714285715
aF2.2214285714285715
aF6.3028571428571434
aF1.1828571428571428
aF3.6099999999999999
aF1479.7142857142858
aS'1'
tp177
a((lp178
F13.744285714285713
aF2.1857142857142855
aF2.9628571428571426
aF16.142857142857142
aF122.57142857142857
aF2.637142857142857
aF3.0485714285714285
aF0.35714285714285715
aF1.7685714285714285
aF4.628571428571429
aF1.1828571428571428
aF2.8300000000000001
aF1079.1428571428571
aS'1'
tp179
a((lp180
F12.658571428571427
aF1.4628571428571426
aF2.1614285714285715
aF21.685714285714283
aF109.42857142857143
aF1.8085714285714285
aF1.0171428571428571
aF0.5842857142857143
aF1.7685714285714285
aF7.9771428571428578
aF0.65571428571428569
aF1.6600000000000001
aF678.57142857142856
aS'3'
tp181
a((lp182
F12.658571428571427
aF1.4628571428571426
aF2.1614285714285715
aF21.685714285714283
aF83.142857142857139
aF2.2228571428571429
aF2.3714285714285714
aF0.28142857142857147
aF1.3157142857142856
aF6.3028571428571434
aF1.1828571428571428
aF3.6099999999999999
aF678.57142857142856
aS'2'
tp183
a((lp184
F12.658571428571427
aF5.7999999999999998
aF2.6957142857142857
aF27.228571428571428
aF96.285714285714278
aF1.8085714285714285
aF1.0171428571428571
aF0.66000000000000003
aF1.3157142857142856
aF6.3028571428571434
aF0.83142857142857141
aF2.0499999999999998
aF678.57142857142856
aS'3'
tp185
a((lp186
F13.744285714285713
aF5.7999999999999998
aF2.6957142857142857
aF21.685714285714283
aF96.285714285714278
aF1.8085714285714285
aF1.0171428571428571
aF0.5842857142857143
aF1.3157142857142856
aF7.9771428571428578
aF0.65571428571428569
aF2.0499999999999998
aF878.85714285714289
aS'3'
tp187
a((lp188
F12.115714285714285
aF1.4628571428571426
aF2.6957142857142857
aF24.457142857142856
aF83.142857142857139
aF2.2228571428571429
aF1.6942857142857144
aF0.43285714285714288
aF1.7685714285714285
aF2.9542857142857146
aF1.3585714285714285
aF2.8300000000000001
aF678.57142857142856
aS'2'
tp189
a((lp190
F13.201428571428572
aF1.4628571428571426
aF2.4285714285714288
aF18.914285714285711
aF109.42857142857143
aF2.2228571428571429
aF2.3714285714285714
aF0.35714285714285715
aF1.7685714285714285
aF2.9542857142857146
aF1.3585714285714285
aF3.2200000000000002
aF478.28571428571428
aS'2'
tp191
a((lp192
F13.744285714285713
aF3.6314285714285708
aF2.9628571428571426
aF24.457142857142856
aF109.42857142857143
aF1.8085714285714285
aF1.0171428571428571
aF0.50857142857142867
aF0.86285714285714277
aF4.628571428571429
aF1.0071428571428571
aF2.4399999999999999
aF678.57142857142856
aS'3'
tp193
a((lp194
F13.744285714285713
aF1.4628571428571426
aF2.4285714285714288
aF18.914285714285711
aF122.57142857142857
aF2.637142857142857
aF1.6942857142857144
aF0.5842857142857143
aF0.86285714285714277
aF4.628571428571429
aF1.1828571428571428
aF2.0499999999999998
aF878.85714285714289
aS'2'
tp195
a((lp196
F14.287142857142857
aF2.1857142857142855
aF2.6957142857142857
aF18.914285714285711
aF109.42857142857143
aF3.4657142857142857
aF4.402857142857143
aF0.35714285714285715
aF2.2214285714285715
aF9.6514285714285712
aF1.3585714285714285
aF2.8300000000000001
aS'1'
tp197
a((lp198
F12.658571428571427
aF2.1857142857142855
aF2.4285714285714288
aF21.685714285714283
aF2.637142857142857
aF2.3714285714285714
aF0.35714285714285715
aF3.5800000000000001
aF2.9542857142857146
aF1.1828571428571428
aF2.8300000000000001
aF1079.1428571428571
aS'2'
tp199
a((lp200
F13.201428571428572
aF2.1857142857142855
aF2.6957142857142857
aF18.914285714285711
aF96.285714285714278
aF2.637142857142857
aF2.3714285714285714
aF0.28142857142857147
aF1.7685714285714285
aF4.628571428571429
aF1.1828571428571428
aF4
aF1079.1428571428571
aS'1'
tp201
a((lp202
F14.287142857142857
aF2.1857142857142855
aF2.4285714285714288
aF18.914285714285711
aF109.42857142857143
aF3.0514285714285712
aF3.7257142857142855
aF0.28142857142857147
aF2.6742857142857144
aF6.3028571428571434
aF1.3585714285714285
aF3.2200000000000002
aF1680
aS'1'
tp203
a((lp204
F12.658571428571427
aF2.9085714285714284
aF2.4285714285714288
aF18.914285714285711
aF96.285714285714278
aF1.8085714285714285
aF1.0171428571428571
aF0.66000000000000003
aF1.3157142857142856
aF7.9771428571428578
aF0.83142857142857141
aF1.6600000000000001
aF878.85714285714289
aS'3'
tp205
a((lp206
F13.201428571428572
aF3.6314285714285708
aF2.4285714285714288
aF18.914285714285711
aF109.42857142857143
aF1.3942857142857141
aF1.0171428571428571
aF0.43285714285714288
aF1.3157142857142856
aF6.3028571428571434
aF0.83142857142857141
aF2.0499999999999998
aF678.57142857142856
aS'3'
tp207
a((lp208
F12.115714285714285
aF1.4628571428571426
aF2.9628571428571426
aF21.685714285714283
aF96.285714285714278
aF3.0514285714285712
aF3.0485714285714285
aF0.35714285714285715
aF2.6742857142857144
aF2.9542857142857146
aF1.0071428571428571
aF3.6099999999999999
aF878.85714285714289
aS'2'
tp209
a((lp210
F13.744285714285713
aF2.1857142857142855
aF2.4285714285714288
aF18.914285714285711
aF109.42857142857143
aF2.637142857142857
aF3.0485714285714285
aF0.43285714285714288
aF2.2214285714285715
aF4.628571428571429
aF1.3585714285714285
aF3.2200000000000002
aF1079.1428571428571
aS'1'
tp211
a((lp212
F13.201428571428572
aF4.3542857142857141
aF2.6957142857142857
aF18.914285714285711
aF109.42857142857143
aF2.637142857142857
aF3.0485714285714285
aF0.28142857142857147
aF2.2214285714285715
aF4.628571428571429
aF1.1828571428571428
aF3.6099999999999999
aF878.85714285714289
aS'1'
tp213
a((lp214
F13.744285714285713
aF4.3542857142857141
aF2.4285714285714288
aF18.914285714285711
aF109.42857142857143
aF3.0514285714285712
aF3.0485714285714285
aF0.35714285714285715
aF1.7685714285714285
aF4.628571428571429
aF0.83142857142857141
aF3.2200000000000002
aF878.85714285714289
aS'1'
tp215
a((lp216
F13.744285714285713
aF2.1857142857142855
aF2.4285714285714288
aF24.457142857142856
aF96.285714285714278
aF2.2228571428571429
aF2.3714285714285714
aF0.28142857142857147
aF1.3157142857142856
aF4.628571428571429
aF1.0071428571428571
aF2.8300000000000001
aF478.28571428571428
aS'2'
tp217
a((lp218
F13.201428571428572
aF1.4628571428571426
aF1.8942857142857144
aF16.142857142857142
aF83.142857142857139
aF3.0514285714285712
aF3.7257142857142855
aF0.28142857142857147
aF2.6742857142857144
aF6.3028571428571434
aF1.1828571428571428
aF3.2200000000000002
aF678.57142857142856
aS'2'
tp219
a((lp220
F13.201428571428572
aF2.1857142857142855
aF2.1614285714285715
aF18.914285714285711
aF109.42857142857143
aF3.0514285714285712
aF3.0485714285714285
aF0.28142857142857147
aF2.2214285714285715
aF6.3028571428571434
aF1.0071428571428571
aF3.6099999999999999
aF1079.1428571428571
aS'1'
tp221
a((lp222
F14.287142857142857
aF4.3542857142857141
aF2.9628571428571426
aF27.228571428571428
aF96.285714285714278
aF2.2228571428571429
aF1.0171428571428571
aF0.5842857142857143
aF1.7685714285714285
aF9.6514285714285712
aF0.65571428571428569
aF1.6600000000000001
aF678.57142857142856
aS'3'
tp223
a((lp224
F14.287142857142857
aF4.3542857142857141
aF2.4285714285714288
aF21.685714285714283
aF96.285714285714278
aF1.8085714285714285
aF1.0171428571428571
aF0.50857142857142867
aF1.7685714285714285
aF9.6514285714285712
aF0.65571428571428569
aF1.6600000000000001
aF678.57142857142856
aS'3'
tp225
a((lp226
F14.287142857142857
aF2.1857142857142855
aF2.9628571428571426
aF21.685714285714283
aF109.42857142857143
aF3.0514285714285712
aF3.0485714285714285
aF0.43285714285714288
aF1.7685714285714285
aF4.628571428571429
aF1.3585714285714285
aF3.6099999999999999
aF1079.1428571428571
aS'1'
tp227
a((lp228
F13.201428571428572
aF2.1857142857142855
aF3.23
aF27.228571428571428
aF135.71428571428572
aF2.637142857142857
aF3.0485714285714285
aF0.50857142857142867
aF2.2214285714285715
aF4.628571428571429
aF1.1828571428571428
aF3.2200000000000002
aF878.85714285714289
aS'1'
tp229
a((lp230
F13.744285714285713
aF1.4628571428571426
aF2.1614285714285715
aF18.914285714285711
aF96.285714285714278
aF2.2228571428571429
aF2.3714285714285714
aF0.35714285714285715
aF0.86285714285714277
aF4.628571428571429
aF1.3585714285714285
aF2.8300000000000001
aF678.57142857142856
aS'2'
tp231
a((lp232
F12.115714285714285
aF2.1857142857142855
aF2.4285714285714288
aF18.914285714285711
aF109.42857142857143
aF3.0514285714285712
aF2.3714285714285714
aF0.20571428571428574
aF1.7685714285714285
aF4.628571428571429
aF1.1828571428571428
aF3.2200000000000002
aF478.28571428571428
aS'2'
tp233
a((lp234
F12.115714285714285
aF2.1857142857142855
aF2.4285714285714288
aF21.685714285714283
aF96.285714285714278
aF2.637142857142857
aF3.0485714285714285
aF0.43285714285714288
aF1.7685714285714285
aF2.9542857142857146
aF1.0071428571428571
aF3.6099999999999999
aF478.28571428571428
aS'2'
tp235
a((lp236
F13.201428571428572
aF2.1857142857142855
aF2.1614285714285715
aF16.142857142857142
aF109.42857142857143
aF2.637142857142857
aF3.0485714285714285
aF0.28142857142857147
aF1.7685714285714285
aF4.628571428571429
aF1.1828571428571428
aF2.8300000000000001
aF1079.1428571428571
aS'1'
tp237
a((lp238
F13.744285714285713
aF4.3542857142857141
aF2.1614285714285715
aF18.914285714285711
aF96.285714285714278
aF2.637142857142857
aF3.0485714285714285
aF0.28142857142857147
aF1.7685714285714285
aF4.628571428571429
aF1.0071428571428571
aF3.2200000000000002
aF1079.1428571428571
aS'1'
tp239
a((lp240
F12.115714285714285
aF2.1857142857142855
aF2.4285714285714288
aF18.914285714285711
aF83.142857142857139
aF1.8085714285714285
aF1.6942857142857144
aF0.5842857142857143
aF1.7685714285714285
aF2.9542857142857146
aF1.1828571428571428
aF2.4399999999999999
aF678.57142857142856
aS'2'
tp241
a((lp242
F13.201428571428572
aF2.9085714285714284
aF2.6957142857142857
aF24.457142857142856
aF122.57142857142857
aF1.8085714285714285
aF1.6942857142857144
aF0.28142857142857147
aF1.3157142857142856
aF11.325714285714286
aF0.65571428571428569
aF1.6600000000000001
aF678.57142857142856
aS'3'
tp243
a((lp244
F13.744285714285713
aF2.1857142857142855
aF2.4285714285714288
aF21.685714285714283
aF109.42857142857143
aF3.0514285714285712
aF3.7257142857142855
aF0.28142857142857147
aF2.2214285714285715
aF7.9771428571428578
aF1.1828571428571428
aF3.2200000000000002
aF1680
aS'1'
tp245
a((lp246
F12.658571428571427
aF1.4628571428571426
aF2.6957142857142857
aF18.914285714285711
aF109.42857142857143
aF2.637142857142857
aF3.0485714285714285
aF0.43285714285714288
aF2.2214285714285715
aF4.628571428571429
aF1.3585714285714285
aF2.4399999999999999
aF678.57142857142856
aS'2'
tp247
a((lp248
F14.287142857142857
aF2.1857142857142855
aF2.4285714285714288
aF18.914285714285711
aF109.42857142857143
aF3.0514285714285712
aF3.0485714285714285
aF0.35714285714285715
aF2.6742857142857144
aF6.3028571428571434
aF1.1828571428571428
aF2.8300000000000001
aF1079.1428571428571
aS'1'
tp249
a((lp250
F11.572857142857142
aF1.4628571428571426
aF2.6957142857142857
aF21.685714285714283
aF96.285714285714278
aF2.637142857142857
aF2.3714285714285714
aF0.43285714285714288
aF1.7685714285714285
aF4.628571428571429
aF1.1828571428571428
aF2.4399999999999999
aF478.28571428571428
aS'2'
tp251
a((lp252
F12.115714285714285
aF2.1857142857142855
aF2.6957142857142857
aF21.685714285714283
aF96.285714285714278
aF2.2228571428571429
aF1.6942857142857144
aF0.50857142857142867
aF1.7685714285714285
aF2.9542857142857146
aF1.0071428571428571
aF2.8300000000000001
aF878.85714285714289
aS'2'
tp253
a((lp254
F13.201428571428572
aF4.3542857142857141
aF2.4285714285714288
aF24.457142857142856
aF109.42857142857143
aF3.0514285714285712
aF3.0485714285714285
aF0.43285714285714288
aF2.2214285714285715
aF2.9542857142857146
aF1.3585714285714285
aF3.2200000000000002
aF478.28571428571428
aS'2'
tp255
a((lp256
F13.744285714285713
aF2.1857142857142855
aF2.6957142857142857
aF21.685714285714283
aF122.57142857142857
aF2.637142857142857
aF3.0485714285714285
aF0.35714285714285715
aF1.7685714285714285
aF4.628571428571429
aF1.1828571428571428
aF3.2200000000000002
aF1279.4285714285713
aS'1'
tp257
a((lp258
F12.658571428571427
aF1.4628571428571426
aF1.6271428571428572
aF13.37142857142857
aF96.285714285714278
aF2.2228571428571429
aF1.0171428571428571
aF0.28142857142857147
aF0.86285714285714277
aF2.9542857142857146
aF1.1828571428571428
aF2.0499999999999998
aF678.57142857142856
aS'2'
tp259
a((lp260
F12.115714285714285
aF2.1857142857142855
aF1.8942857142857144
aF21.685714285714283
aF96.285714285714278
aF2.637142857142857
aF1.6942857142857144
aF0.43285714285714288
aF1.7685714285714285
aF2.9542857142857146
aF1.0071428571428571
aF2.8300000000000001
aF478.28571428571428
aS'2'
tp261
a((lp262
F12.658571428571427
aF3.6314285714285708
aF2.4285714285714288
aF21.685714285714283
aF96.285714285714278
aF1.3942857142857141
aF1.0171428571428571
aF0.43285714285714288
aF0.86285714285714277
aF6.3028571428571434
aF0.83142857142857141
aF2.0499999999999998
aF678.57142857142856
aS'3'
tp263
a((lp264
F12.658571428571427
aF1.4628571428571426
aF2.4285714285714288
aF18.914285714285711
aF96.285714285714278
aF2.2228571428571429
aF1.0171428571428571
aF0.66000000000000003
aF1.3157142857142856
aF6.3028571428571434
aF0.83142857142857141
aF1.6600000000000001
aF678.57142857142856
aS'3'
tp265
a((lp266
F13.744285714285713
aF4.3542857142857141
aF2.6957142857142857
aF24.457142857142856
aF122.57142857142857
aF1.8085714285714285
aF1.0171428571428571
aF0.43285714285714288
aF1.7685714285714285
aF11.325714285714286
aF1.0071428571428571
aF1.6600000000000001
aF878.85714285714289
aS'3'
tp267
a((lp268
F13.201428571428572
aF1.4628571428571426
aF1.8942857142857144
aF16.142857142857142
aF96.285714285714278
aF2.2228571428571429
aF2.3714285714285714
aF0.28142857142857147
aF1.7685714285714285
aF4.628571428571429
aF1.3585714285714285
aF2.8300000000000001
aF478.28571428571428
aS'2'
tp269
a((lp270
F12.658571428571427
aF2.1857142857142855
aF2.4285714285714288
aF24.457142857142856
aF109.42857142857143
aF2.2228571428571429
aF2.3714285714285714
aF0.35714285714285715
aF1.7685714285714285
aF2.9542857142857146
aF1.1828571428571428
aF3.2200000000000002
aF478.28571428571428
aS'2'
tp271
a((lp272
F12.658571428571427
aF2.1857142857142855
aF2.4285714285714288
aF21.685714285714283
aF96.285714285714278
aF3.0514285714285712
aF3.7257142857142855
aF0.43285714285714288
aF2.2214285714285715
aF4.628571428571429
aF0.83142857142857141
aF3.2200000000000002
aF478.28571428571428
aS'2'
tp273
a((lp274
F13.744285714285713
aF3.6314285714285708
aF2.6957142857142857
aF21.685714285714283
aF109.42857142857143
aF2.2228571428571429
aF1.0171428571428571
aF0.50857142857142867
aF0.86285714285714277
aF6.3028571428571434
aF1.0071428571428571
aF2.0499999999999998
aF878.85714285714289
aS'3'
tp275
a((lp276
F13.744285714285713
aF2.1857142857142855
aF2.4285714285714288
aF18.914285714285711
aF109.42857142857143
aF2.637142857142857
aF3.0485714285714285
aF0.28142857142857147
aF1.7685714285714285
aF4.628571428571429
aF1.1828571428571428
aF1079.1428571428571
aS'1'
tp277
a((lp278
F13.201428571428572
aF3.6314285714285708
aF2.6957142857142857
aF24.457142857142856
aF109.42857142857143
aF1.8085714285714285
aF1.0171428571428571
aF0.66000000000000003
aF1.3157142857142856
aF6.3028571428571434
aF1.0071428571428571
aF2.4399999999999999
aF678.57142857142856
aS'3'
tp279
a((lp280
F14.287142857142857
aF2.1857142857142855
aF2.6957142857142857
aF18.914285714285711
aF96.285714285714278
aF2.637142857142857
aF3.0485714285714285
aF0.28142857142857147
aF2.6742857142857144
aF6.3028571428571434
aF1.3585714285714285
aF3.6099999999999999
aF1279.4285714285713
aS'1'
tp281
a((lp282
F12.658571428571427
aF1.4628571428571426
aF2.1614285714285715
aF18.914285714285711
aF96.285714285714278
aF3.8799999999999999
aF4.402857142857143
aF0.28142857142857147
aF2.2214285714285715
aF4.628571428571429
aF1.1828571428571428
aF2.8300000000000001
aF678.57142857142856
aS'2'
tp283
a((lp284
F13.201428571428572
aF3.6314285714285708
aF2.1614285714285715
aF21.685714285714283
aF109.42857142857143
aF1.8085714285714285
aF1.0171428571428571
aF0.43285714285714288
aF1.3157142857142856
aF4.628571428571429
aF0.65571428571428569
aF2.0499999999999998
aF878.85714285714289
aS'3'
tp285
a((lp286
F13.201428571428572
aF2.1857142857142855
aF2.9628571428571426
aF27.228571428571428
aF122.57142857142857
aF2.2228571428571429
aF1.6942857142857144
aF0.28142857142857147
aF1.7685714285714285
aF7.9771428571428578
aF0.65571428571428569
aF1.6600000000000001
aF478.28571428571428
aS'3'
tp287
a((lp288
F14.83
aF2.1857142857142855
aF2.9628571428571426
aF27.228571428571428
aF109.42857142857143
aF3.0514285714285712
aF1.6942857142857144
aF0.5842857142857143
aF3.1271428571428572
aF0.65571428571428569
aF2.0499999999999998
aF678.57142857142856
aS'3'
tp289
a((lp290
F13.744285714285713
aF5.0771428571428565
aF2.4285714285714288
aF21.685714285714283
aF96.285714285714278
aF2.2228571428571429
aF1.0171428571428571
aF0.50857142857142867
aF1.3157142857142856
aF4.628571428571429
aF1.0071428571428571
aF2.4399999999999999
aF678.57142857142856
aS'3'
tp291
a((lp292
F13.744285714285713
aF2.1857142857142855
aF2.1614285714285715
aF18.914285714285711
aF96.285714285714278
aF2.637142857142857
aF2.3714285714285714
aF0.28142857142857147
aF1.7685714285714285
aF4.628571428571429
aF1.1828571428571428
aF2.8300000000000001
aF1479.7142857142858
aS'1'
tp293
a((lp294
F12.115714285714285
aF3.6314285714285708
aF2.1614285714285715
aF21.685714285714283
aF96.285714285714278
aF2.2228571428571429
aF1.6942857142857144
aF0.43285714285714288
aF2.2214285714285715
aF2.9542857142857146
aF1.0071428571428571
aF3.2200000000000002
aF678.57142857142856
aS'2'
tp295
a((lp296
F13.744285714285713
aF2.1857142857142855
aF2.6957142857142857
aF18.914285714285711
aF109.42857142857143
aF3.0514285714285712
aF3.7257142857142855
aF0.35714285714285715
aF1.7685714285714285
aF6.3028571428571434
aF1.1828571428571428
aF3.2200000000000002
aF1279.4285714285713
aS'1'
tp297
a((lp298
F12.115714285714285
aF2.1857142857142855
aF2.9628571428571426
aF30
aF96.285714285714278
aF2.2228571428571429
aF2.3714285714285714
aF0.5842857142857143
aF1.7685714285714285
aF4.628571428571429
aF1.0071428571428571
aF2.8300000000000001
aF478.28571428571428
aS'2'
tp299
a((lp300
F13.201428571428572
aF2.1857142857142855
aF2.1614285714285715
aF13.37142857142857
aF96.285714285714278
aF3.0514285714285712
aF3.7257142857142855
aF0.20571428571428574
aF3.1271428571428572
aF7.9771428571428578
aF1.1828571428571428
aF3.2200000000000002
aF1279.4285714285713
aS'1'
tp301
a((lp302
F13.201428571428572
aF1.4628571428571426
aF2.4285714285714288
aF18.914285714285711
aF122.57142857142857
aF1.8085714285714285
aF1.6942857142857144
aF0.28142857142857147
aF1.3157142857142856
aF4.628571428571429
aF0.83142857142857141
aF1.6600000000000001
aF678.57142857142856
aS'3'
tp303
a((lp304
F12.658571428571427
aF4.3542857142857141
aF2.4285714285714288
aF21.685714285714283
aF96.285714285714278
aF2.637142857142857
aF1.0171428571428571
aF0.50857142857142867
aF1.3157142857142856
aF7.9771428571428578
aF0.65571428571428569
aF1.6600000000000001
aF678.57142857142856
aS'3'
tp305
a((lp306
F13.201428571428572
aF3.6314285714285708
aF2.1614285714285715
aF16.142857142857142
aF83.142857142857139
aF1.8085714285714285
aF1.6942857142857144
aF0.43285714285714288
aF0.86285714285714277
aF4.628571428571429
aF0.83142857142857141
aF2.4399999999999999
aF478.28571428571428
aS'2'
tp307
a((lp308
F14.287142857142857
aF2.1857142857142855
aF2.1614285714285715
aF16.142857142857142
aF109.42857142857143
aF3.4657142857142857
aF3.7257142857142855
aF0.28142857142857147
aF2.2214285714285715
aF6.3028571428571434
aF1.0071428571428571
aF3.6099999999999999
aF1079.1428571428571
aS'1'
tp309
a((lp310
F12.658571428571427
aF2.9085714285714284
aF2.4285714285714288
aF24.457142857142856
aF96.285714285714278
aF1.8085714285714285
aF2.3714285714285714
aF1.7685714285714285
aF2.9542857142857146
aF1.0071428571428571
aF3.6099999999999999
aF478.28571428571428
aS'2'
tp311
a((lp312
F13.201428571428572
aF2.9085714285714284
aF2.4285714285714288
aF21.685714285714283
aF122.57142857142857
aF1.8085714285714285
aF1.0171428571428571
aF0.5842857142857143
aF1.7685714285714285
aF9.6514285714285712
aF0.65571428571428569
aF1.6600000000000001
aF878.85714285714289
aS'3'
tp313
a((lp314
F12.115714285714285
aF2.1857142857142855
aF2.4285714285714288
aF24.457142857142856
aF96.285714285714278
aF1.8085714285714285
aF1.6942857142857144
aF0.50857142857142867
aF1.7685714285714285
aF4.628571428571429
aF1.1828571428571428
aF2.8300000000000001
aF478.28571428571428
aS'2'
tp315
a((lp316
F12.658571428571427
aF2.1857142857142855
aF2.1614285714285715
aF21.685714285714283
aF96.285714285714278
aF2.2228571428571429
aF2.3714285714285714
aF0.35714285714285715
aF1.7685714285714285
aF2.9542857142857146
aF1.1828571428571428
aF3.6099999999999999
aF678.57142857142856
aS'2'
tp317
a((lp318
F11.572857142857142
aF2.1857142857142855
aF30
aF122.57142857142857
aF3.4657142857142857
aF0.50857142857142867
aF2.2214285714285715
aF6.3028571428571434
aF1.0071428571428571
aF4
aF478.28571428571428
aS'2'
tp319
a((lp320
F14.83
aF2.1857142857142855
aF2.6957142857142857
aF18.914285714285711
aF122.57142857142857
aF3.8799999999999999
aF3.7257142857142855
aF0.28142857142857147
aF2.2214285714285715
aF7.9771428571428578
aF1.0071428571428571
aF3.6099999999999999
aF1680
aS'1'
tp321
a((lp322
F14.83
aF2.1857142857142855
aF2.4285714285714288
aF13.37142857142857
aF96.285714285714278
aF3.4657142857142857
aF3.7257142857142855
aF0.43285714285714288
aF3.1271428571428572
aF6.3028571428571434
aF1.3585714285714285
aF2.8300000000000001
aF1279.4285714285713
aS'1'
tp323
a((lp324
F12.658571428571427
aF3.6314285714285708
aF2.4285714285714288
aF18.914285714285711
aF96.285714285714278
aF3.0514285714285712
aF3.0485714285714285
aF0.50857142857142867
aF3.1271428571428572
aF2.9542857142857146
aF1.5342857142857143
aF3.2200000000000002
aF478.28571428571428
aS'2'
tp325
a((lp326
F13.744285714285713
aF1.4628571428571426
aF2.6957142857142857
aF18.914285714285711
aF109.42857142857143
aF3.4657142857142857
aF3.7257142857142855
aF0.20571428571428574
aF2.2214285714285715
aF7.9771428571428578
aF1.0071428571428571
aF3.2200000000000002
aF1479.7142857142858
aS'1'
tp327
a((lp328
F12.658571428571427
aF3.6314285714285708
aF2.6957142857142857
aF27.228571428571428
aF109.42857142857143
aF2.2228571428571429
aF1.0171428571428571
aF0.66000000000000003
aF1.3157142857142856
aF7.9771428571428578
aF0.83142857142857141
aF2.0499999999999998
aF1079.1428571428571
aS'3'
tp329
a((lp330
F12.115714285714285
aF2.1857142857142855
aF2.1614285714285715
aF21.685714285714283
aF96.285714285714278
aF2.2228571428571429
aF1.6942857142857144
aF0.35714285714285715
aF1.7685714285714285
aF2.9542857142857146
aF1.0071428571428571
aF3.6099999999999999
aF678.57142857142856
aS'2'
tp331
a((lp332
F11.572857142857142
aF2.1857142857142855
aF2.4285714285714288
aF21.685714285714283
aF96.285714285714278
aF2.637142857142857
aF2.3714285714285714
aF0.5842857142857143
aF2.2214285714285715
aF2.9542857142857146
aF3.2200000000000002
aF478.28571428571428
aS'2'
tp333
a((lp334
F13.744285714285713
aF3.6314285714285708
aF2.4285714285714288
aF21.685714285714283
aF96.285714285714278
aF2.2228571428571429
aF1.0171428571428571
aF0.50857142857142867
aF1.3157142857142856
aF9.6514285714285712
aF0.65571428571428569
aF1.6600000000000001
aF678.57142857142856
aS'3'
tp335
a((lp336
F13.201428571428572
aF2.1614285714285715
aF21.685714285714283
aF96.285714285714278
aF2.637142857142857
aF3.0485714285714285
aF0.35714285714285715
aF2.2214285714285715
aF2.9542857142857146
aF0.83142857142857141
aF3.2200000000000002
aF478.28571428571428
aS'2'
tp337
a((lp338
F13.201428571428572
aF2.1857142857142855
aF2.1614285714285715
aF13.37142857142857
aF109.42857142857143
aF3.0514285714285712
aF3.0485714285714285
aF0.28142857142857147
aF1.3157142857142856
aF4.628571428571429
aF1.1828571428571428
aF3.6099999999999999
aF1079.1428571428571
aS'1'
tp339
a((lp340
F12.658571428571427
aF2.1857142857142855
aF2.4285714285714288
aF24.457142857142856
aF96.285714285714278
aF1.8085714285714285
aF1.6942857142857144
aF0.43285714285714288
aF1.7685714285714285
aF2.9542857142857146
aF1.3585714285714285
aF2.4399999999999999
aF678.57142857142856
aS'2'
tp341
a((lp342
F14.83
aF2.1857142857142855
aF2.4285714285714288
aF13.37142857142857
aF109.42857142857143
aF3.4657142857142857
aF3.7257142857142855
aF0.35714285714285715
aF3.1271428571428572
aF7.9771428571428578
aF1.3585714285714285
aF3.2200000000000002
aF1680
aS'1'
tp343
a((lp344
F12.658571428571427
aF2.1857142857142855
aF2.1614285714285715
aF21.685714285714283
aF83.142857142857139
aF1.8085714285714285
aF2.3714285714285714
aF0.43285714285714288
aF1.7685714285714285
aF4.628571428571429
aF1.0071428571428571
aF3.2200000000000002
aF678.57142857142856
aS'2'
tp345
a((lp346
F12.115714285714285
aF2.9085714285714284
aF2.9628571428571426
aF21.685714285714283
aF109.42857142857143
aF1.8085714285714285
aF2.3714285714285714
aF0.66000000000000003
aF1.3157142857142856
aF4.628571428571429
aF1.3585714285714285
aF2.8300000000000001
aF678.57142857142856
aS'2'
tp347
a((lp348
F13.201428571428572
aF2.9085714285714284
aF2.4285714285714288
aF21.685714285714283
aF96.285714285714278
aF1.3942857142857141
aF1.0171428571428571
aF0.50857142857142867
aF0.86285714285714277
aF11.325714285714286
aF0.65571428571428569
aF1.6600000000000001
aF478.28571428571428
aS'3'
tp349
a((lp350
F14.287142857142857
aF4.3542857142857141
aF2.6957142857142857
aF18.914285714285711
aF122.57142857142857
aF3.0514285714285712
aF3.0485714285714285
aF0.35714285714285715
aF1.3157142857142856
aF6.3028571428571434
aF1.0071428571428571
aF3.6099999999999999
aF1279.4285714285713
aS'1'
tp351
a((lp352
F13.744285714285713
aF3.6314285714285708
aF2.6957142857142857
aF16.142857142857142
aF122.57142857142857
aF3.0514285714285712
aF3.0485714285714285
aF0.20571428571428574
aF1.7685714285714285
aF6.3028571428571434
aF1.0071428571428571
aF3.6099999999999999
aF878.85714285714289
aS'1'
tp353
a((lp354
F12.115714285714285
aF2.1857142857142855
aF2.6957142857142857
aF27.228571428571428
aF96.285714285714278
aF2.2228571428571429
aF1.6942857142857144
aF0.43285714285714288
aF1.7685714285714285
aF2.9542857142857146
aF1.5342857142857143
aF3.2200000000000002
aF678.57142857142856
aS'2'
tp355
a((lp356
F13.201428571428572
aF2.9085714285714284
aF2.9628571428571426
aF21.685714285714283
aF96.285714285714278
aF1.8085714285714285
aF1.0171428571428571
aF0.5842857142857143
aF0.86285714285714277
aF4.628571428571429
aF0.83142857142857141
aF2.4399999999999999
aF678.57142857142856
aS'3'
tp357
a.