(lp1
((lp2
I5
aI3
aI10
aI13
aI1
aI8
aI5
aI10
aI6
aI1
aI9
aI13
aI5
aS'2'
tp3
a((lp4
I11
aI10
aI9
aI8
aI6
aI6
aI2
aI17
aI9
aI15
aI2
aI2
aI6
aS'3'
tp5
a((lp6
I9
aI8
aI13
aI13
aI7
aI9
aI1
aI14
aI3
aI6
aI7
aI6
aI5
aS'3'
tp7
a((lp8
I15
aI4
aI9
aI6
aI11
aI13
aI11
aI4
aI10
aI7
aI9
aI17
aI7
aS'1'
tp9
a((lp10
I14
aI4
aI11
aI4
aI9
aI13
aI7
aI9
aI9
aI8
aI14
aI12
aS'1'
tp11
a((lp12
I12
aI4
aI13
aI9
aI6
aI10
aI9
aI6
aI8
aI4
aI10
aI17
aI8
aS'1'
tp13
a((lp14
I9
aI4
aI9
aI12
aI3
aI3
aI6
aI12
aI7
aI4
aI6
aI8
aI3
aS'2'
tp15
a((lp16
I3
aI11
aI5
aI9
aI8
aI14
aI9
aI4
aI3
aI4
aI11
aI4
aS'2'
tp17
a((lp18
I4
aI8
aI4
aI6
aI12
aI11
aI6
aI9
aI7
aI9
aI11
aI10
aS'1'
tp19
a((lp20
I4
aI1
aI12
aI7
aI5
aI8
aI8
aI4
aI12
aI3
aI5
aI12
aI4
aS'2'
tp21
a((lp22
I14
aI3
aI9
aI6
aI6
aI13
aI11
aI4
aI9
aI10
aI8
aI16
aI10
aS'1'
tp23
a((lp24
I12
aI14
aI15
aI14
aI9
aI7
aI3
aI5
aI4
aI12
aI3
aI5
aI5
aS'3'
tp25
a((lp26
I11
aI13
aI9
aI9
aI10
aI4
aI2
aI11
aI6
aI14
aI2
aI2
aI8
aS'3'
tp27
a((lp28
I7
aI7
aI11
aI10
aI6
aI10
aI7
aI8
aI6
aI3
aI5
aI14
aI3
aS'2'
tp29
a((lp30
I11
aI6
aI13
aI8
aI7
aI12
aI12
aI6
aI14
aI7
aI9
aI13
aI12
aS'1'
tp31
a((lp32
I16
aI5
aI14
aI9
aI10
aI12
aI11
aI7
aI9
aI8
aI9
aI10
aI13
aS'1'
tp33
a((lp34
I14
aI4
aI9
aI7
aI8
aI12
aI13
aI7
aI10
aI12
aI10
aI13
aI13
aS'1'
tp35
a((lp36
I7
aI4
aI10
aI13
aI4
aI8
aI9
aI10
aI9
aI2
aI7
aI10
aI1
aS'2'
tp37
a((lp38
I7
aI14
aI14
aI15
aI7
aI8
aI7
aI11
aI8
aI2
aI7
aI13
aI2
aS'2'
tp39
a((lp40
I12
aI12
aI11
aI12
aI7
aI6
aI2
aI11
aI6
aI10
aI4
aI2
aI7
aS'3'
tp41
a((lp42
I8
aI3
aI9
aI10
aI2
aI3
aI5
aI16
aI7
aI3
aI8
aI6
aI3
aS'2'
tp43
a((lp44
I4
aI8
aI9
aI7
aI9
aI5
aI4
aI11
aI4
aI3
aI8
aI9
aI3
aS'2'
tp45
a((lp46
I2
aI6
aI11
aI9
aI6
aI12
aI10
aI7
aI9
aI4
aI5
aI14
aI5
aS'2'
tp47
a((lp48
I16
aI4
aI11
aI5
aI12
aI12
aI11
aI6
aI11
aI7
aI9
aI18
aI11
aS'1'
tp49
a((lp50
I15
aI7
aI11
aI9
aI5
aI5
aI2
aI11
aI5
aI13
aI3
aI3
aI5
aS'3'
tp51
a((lp52
I15
aI6
aI13
aI7
aI10
aI11
aI9
aI7
aI5
aI6
aI9
aI16
aI14
aS'1'
tp53
a((lp54
I13
aI3
aI13
aI12
aI7
aI13
aI12
aI6
aI12
aI7
aI11
aI10
aI13
aS'1'
tp55
a((lp56
I5
aI3
aI11
aI12
aI3
aI10
aI8
aI11
aI4
aI3
aI7
aI13
aI2
aS'2'
tp57
a((lp58
I6
aI12
aI9
aI8
aI9
aI3
aI2
aI6
aI5
aI11
aI3
aI5
aI8
aS'3'
tp59
a((lp60
I9
aI9
aI11
aI9
aI7
aI2
aI4
aI4
aI3
aI7
aI4
aI1
aI4
aS'3'
tp61
a((lp62
I8
aI10
aI10
aI11
aI8
aI5
aI4
aI2
aI3
aI6
aI5
aI1
aI5
aS'3'
tp63
a((lp64
I14
aI3
aI13
aI9
aI9
aI13
aI12
aI10
aI8
aI9
aI10
aI9
aI11
aS'1'
tp65
a((lp66
I10
aI4
aI12
aI7
aI6
aI10
aI8
aI6
aI6
aI5
aI10
aI9
aI11
aS'1'
tp67
a((lp68
I14
aI5
aI12
aI5
aI7
aI15
aI13
aI2
aI8
aI7
aI6
aI16
aI11
aS'1'
tp69
a((lp70
I11
aI16
aI10
aI11
aI5
aI5
aI2
aI17
aI7
aI11
aI2
aI2
aI6
aS'3'
tp71
a((lp72
I5
aI2
aI10
aI10
aI7
aI15
aI7
aI1
aI8
aI3
aI8
aI13
aI8
aS'2'
tp73
a((lp74
I8
aI3
aI6
aI8
aI4
aI3
aI4
aI6
aI6
aI2
aI9
aI10
aI4
aS'2'
tp75
a((lp76
I9
aI14
aI11
aI11
aI4
aI5
aI2
aI12
aI3
aI10
aI1
aI4
aI5
aS'3'
tp77
a((lp78
I16
aI12
aI12
aI3
aI12
aI13
aI11
aI3
aI10
aI6
aI7
aI15
aI7
aS'1'
tp79
a((lp80
I12
aI4
aI11
aI10
aI6
aI11
aI11
aI5
aI9
aI6
aI9
aI15
aI9
aS'1'
tp81
a((lp82
I3
aI5
aI6
aI6
aI6
aI4
aI5
aI8
aI5
aI4
aI11
aI6
aI2
aS'2'
tp83
a((lp84
I13
aI13
aI9
aI12
aI4
aI2
aI1
aI14
aI5
aI9
aI5
aI4
aI4
aS'3'
tp85
a((lp86
I8
aI3
aI7
aI6
aI6
aI7
aI5
aI14
aI2
aI7
aI8
aI3
aI3
aS'2'
tp87
a((lp88
I13
aI4
aI9
aI6
aI10
aI11
aI10
aI3
aI7
aI8
aI7
aI13
aI11
aS'1'
tp89
a((lp90
I16
aI4
aI10
aI6
aI10
aI14
aI11
aI5
aI10
aI8
aI7
aI14
aI9
aS'1'
tp91
a((lp92
I11
aI7
aI15
aI10
aI10
aI12
aI9
aI9
aI9
aI5
aI9
aI11
aI6
aS'1'
tp93
a((lp94
I4
aI13
aI10
aI10
aI3
aI12
aI11
aI3
aI15
aI3
aI4
aI16
aI2
aS'2'
tp95
a((lp96
I7
aI2
aI8
aI8
aI4
aI16
aI11
aI3
aI9
aI5
aI11
aI11
aI2
aS'2'
tp97
a((lp98
I12
aI11
aI8
aI9
aI4
aI4
aI1
aI16
aI3
aI7
aI5
aI4
aI4
aS'3'
tp99
a((lp100
I12
aI7
aI10
aI9
aI4
aI3
aI1
aI9
aI2
aI7
aI4
aI8
aI7
aS'3'
tp101
a((lp102
I8
aI7
aI8
aI10
aI4
aI10
aI8
aI5
aI5
aI2
aI7
aI10
aI1
aS'2'
tp103
a((lp104
I12
aI4
aI11
aI10
aI10
aI13
aI10
aI3
aI12
aI8
aI8
aI12
aI11
aS'1'
tp105
a((lp106
I15
aI3
aI10
aI6
aI5
aI8
aI8
aI5
aI7
aI6
aI11
aI11
aI13
aS'1'
tp107
a((lp108
I7
aI1
aI6
aI4
aI13
aI6
aI6
aI8
aI14
aI4
aI9
aI7
aI7
aS'2'
tp109
a((lp110
I13
aI5
aI13
aI7
aI9
aI13
aI10
aI9
aI8
aI8
aI10
aI11
aI15
aS'1'
tp111
a((lp112
I16
aI4
aI11
aI5
aI9
aI15
aI12
aI8
aI9
aI9
aI9
aI11
aI16
aS'1'
tp113
a((lp114
I13
aI7
aI13
aI13
aI7
aI4
aI2
aI9
aI7
aI12
aI4
aI4
aI7
aS'3'
tp115
a((lp116
I6
aI3
aI6
aI6
aI3
aI10
aI9
aI6
aI8
aI3
aI11
aI10
aI2
aS'2'
tp117
a((lp118
I10
aI4
aI12
aI14
aI15
aI10
aI3
aI9
aI4
aI13
aI15
aI10
aS'2'
tp119
a((lp120
I14
aI16
aI9
aI9
aI2
aI1
aI1
aI10
aI2
aI6
aI2
aI1
aI2
aS'3'
tp121
a((lp122
I9
aI6
aI11
aI13
aI6
aI2
aI3
aI5
aI3
aI7
aI3
aI1
aI4
aS'3'
tp123
a((lp124
I14
aI3
aI13
aI14
aI4
aI13
aI10
aI3
aI9
aI4
aI13
aI13
aI2
aS'2'
tp125
a((lp126
I10
aI12
aI10
aI11
aI9
aI3
aI4
aI8
aI5
aI13
aI2
aI1
aI4
aS'3'
tp127
a((lp128
I6
aI3
aI12
aI8
aI7
aI6
aI6
aI11
aI4
aI3
aI15
aI7
aI1
aS'2'
tp129
a((lp130
I10
aI12
aI10
aI12
aI3
aI5
aI5
aI17
aI7
aI6
aI6
aI5
aI4
aS'2'
tp131
a((lp132
I6
aI8
aI9
aI7
aI4
aI10
aI8
aI5
aI9
aI2
aI10
aI14
aI1
aS'2'
tp133
a((lp134
I15
aI4
aI9
aI6
aI6
aI11
aI8
aI5
aI9
aI6
aI9
aI16
aI10
aS'1'
tp135
a((lp136
I12
aI4
aI13
aI12
aI4
aI11
aI3
aI14
aI11
aI17
aI2
aI4
aI5
aS'3'
tp137
a((lp138
I6
aI15
aI12
aI10
aI4
aI3
aI1
aI14
aI3
aI4
aI4
aI1
aI6
aS'3'
tp139
a((lp140
I4
aI5
aI14
aI11
aI13
aI4
aI3
aI1
aI7
aI2
aI7
aI7
aI5
aS'2'
tp141
a((lp142
I5
aI5
aI4
aI7
aI6
aI8
aI7
aI5
aI6
aI4
aI12
aI12
aI6
aS'2'
tp143
a((lp144
I14
aI8
aI10
aI11
aI4
aI3
aI2
aI10
aI4
aI13
aI4
aI3
aI5
aS'3'
tp145
a((lp146
I5
aI1
aI7
aI8
aI4
aI9
aI8
aI6
aI6
aI2
aI14
aI13
aI1
aS'2'
tp147
a((lp148
I13
aI4
aI11
aI6
aI4
aI11
aI10
aI6
aI8
aI7
aI10
aI11
aI14
aS'1'
tp149
a((lp150
I6
aI4
aI9
aI10
aI7
aI1
aI3
aI9
aI6
aI3
aI7
aI4
aI8
aS'2'
tp151
a((lp152
I12
aI9
aI13
aI13
aI11
aI3
aI5
aI4
aI5
aI12
aI2
aI1
aI3
aS'3'
tp153
a((lp154
I13
aI4
aI13
aI7
aI9
aI12
aI10
aI6
aI6
aI10
aI12
aI11
aI14
aS'1'
tp155
a((lp156
I6
aI2
aI6
aI8
aI5
aI9
aI7
aI9
aI10
aI3
aI6
aI12
aI1
aS'2'
tp157
a((lp158
I12
aI4
aI10
aI6
aI10
aI14
aI12
aI8
aI11
aI8
aI7
aI14
aI7
aS'1'
tp159
a((lp160
I9
aI4
aI9
aI8
aI4
aI8
aI9
aI5
aI8
aI5
aI10
aI13
aI6
aS'2'
tp161
a((lp162
I13
aI3
aI13
aI9
aI13
aI13
aI10
aI13
aI6
aI7
aI12
aI12
aI13
aS'1'
tp163
a((lp164
I9
aI10
aI10
aI9
aI4
aI4
aI2
aI10
aI4
aI14
aI4
aI4
aI6
aS'3'
tp165
a((lp166
I6
aI2
aI4
aI6
aI16
aI6
aI4
aI1
aI12
aI3
aI12
aI12
aI6
aS'2'
tp167
a((lp168
I16
aI11
aI9
aI6
aI7
aI15
aI11
aI5
aI11
aI6
aI9
aI15
aI11
aS'1'
tp169
a((lp170
I7
aI2
aI9
aI6
aI7
aI7
aI3
aI17
aI1
aI4
aI12
aI3
aI6
aS'2'
tp171
a((lp172
I12
aI4
aI13
aI6
aI5
aI12
aI10
aI8
aI6
aI6
aI7
aI13
aI12
aS'1'
tp173
a((lp174
I5
aI13
aI10
aI11
aI2
aI7
aI6
aI10
aI6
aI3
aI5
aI9
aI4
aS'2'
tp175
a((lp176
I16
aI5
aI11
aI4
aI6
aI10
aI9
aI6
aI9
aI7
aI8
aI16
aI13
aS'1'
tp177
a((lp178
I11
aI4
aI15
aI5
aI8
aI11
aI9
aI8
aI6
aI6
aI9
aI10
aI8
aS'1'
tp179
a((lp180
I8
aI2
aI8
aI9
aI7
aI4
aI1
aI14
aI6
aI10
aI2
aI2
aI5
aS'3'
tp181
a((lp182
I7
aI2
aI6
aI9
aI2
aI8
aI7
aI5
aI4
aI6
aI10
aI15
aI3
aS'2'
tp183
a((lp184
I8
aI17
aI13
aI14
aI6
aI6
aI1
aI17
aI4
aI6
aI5
aI3
aI4
aS'3'
tp185
a((lp186
I13
aI18
aI11
aI10
aI5
aI5
aI2
aI14
aI4
aI10
aI3
aI4
aI6
aS'3'
tp187
a((lp188
I5
aI2
aI12
aI13
aI2
aI7
aI5
aI10
aI6
aI2
aI13
aI10
aI5
aS'2'
tp189
a((lp190
I8
aI1
aI9
aI7
aI6
aI8
aI7
aI6
aI6
aI3
aI11
aI13
aI3
aS'2'
tp191
a((lp192
I12
aI9
aI14
aI12
aI6
aI4
aI1
aI13
aI1
aI5
aI7
aI6
aI4
aS'3'
tp193
a((lp194
I11
aI1
aI10
aI6
aI8
aI10
aI4
aI15
aI1
aI3
aI8
aI5
aI7
aS'2'
tp195
a((lp196
I15
aI4
aI11
aI6
aI8
aI15
aI14
aI7
aI9
aI12
aI11
aI11
aS'1'
tp197
a((lp198
I7
aI3
aI9
aI8
aI10
aI8
aI7
aI17
aI3
aI10
aI9
aI9
aS'2'
tp199
a((lp200
I9
aI4
aI12
aI7
aI5
aI10
aI8
aI5
aI6
aI5
aI9
aI16
aI10
aS'1'
tp201
a((lp202
I15
aI6
aI10
aI7
aI7
aI13
aI12
aI4
aI12
aI7
aI12
aI13
aI16
aS'1'
tp203
a((lp204
I8
aI7
aI9
aI8
aI5
aI4
aI2
aI17
aI4
aI9
aI4
aI3
aI6
aS'3'
tp205
a((lp206
I10
aI10
aI10
aI8
aI8
aI3
aI2
aI10
aI4
aI7
aI3
aI4
aI6
aS'3'
tp207
a((lp208
I3
aI3
aI13
aI9
aI5
aI11
aI10
aI6
aI12
aI3
aI8
aI14
aI6
aS'2'
tp209
a((lp210
I13
aI4
aI10
aI7
aI7
aI9
aI9
aI10
aI9
aI4
aI11
aI11
aI10
aS'1'
tp211
a((lp212
I10
aI11
aI13
aI8
aI7
aI9
aI8
aI5
aI9
aI5
aI9
aI15
aI7
aS'1'
tp213
a((lp214
I11
aI12
aI9
aI7
aI7
aI11
aI9
aI7
aI8
aI5
aI5
aI12
aI6
aS'1'
tp215
a((lp216
I12
aI4
aI9
aI13
aI4
aI6
aI6
aI5
aI4
aI4
aI8
aI10
aI3
aS'2'
tp217
a((lp218
I10
aI1
aI4
aI5
aI2
aI13
aI11
aI5
aI11
aI7
aI10
aI13
aI3
aS'2'
tp219
a((lp220
I10
aI4
aI8
aI6
aI8
aI13
aI11
aI6
aI10
aI6
aI6
aI14
aI8
aS'1'
tp221
a((lp222
I15
aI12
aI14
aI13
aI6
aI7
aI2
aI15
aI6
aI13
aI2
aI3
aI4
aS'3'
tp223
a((lp224
I14
aI13
aI10
aI9
aI4
aI6
aI2
aI12
aI7
aI12
aI2
aI3
aI3
aS'3'
tp225
a((lp226
I14
aI5
aI14
aI9
aI8
aI13
aI10
aI9
aI8
aI5
aI12
aI15
aI9
aS'1'
tp227
a((lp228
I10
aI5
aI18
aI14
aI11
aI11
aI9
aI12
aI9
aI4
aI10
aI13
aI8
aS'1'
tp229
a((lp230
I13
aI2
aI6
aI7
aI5
aI7
aI6
aI7
aI2
aI4
aI11
aI8
aI5
aS'2'
tp231
a((lp232
I3
aI5
aI9
aI7
aI6
aI13
aI8
aI2
aI6
aI4
aI10
aI12
aI1
aS'2'
tp233
a((lp234
I5
aI6
aI8
aI10
aI3
aI11
aI9
aI9
aI6
aI3
aI6
aI14
aI2
aS'2'
tp235
a((lp236
I10
aI3
aI8
aI5
aI6
aI9
aI9
aI6
aI6
aI4
aI11
aI10
aI10
aS'1'
tp237
a((lp238
I12
aI12
aI8
aI8
aI4
aI10
aI9
aI5
aI7
aI5
aI7
aI12
aI10
aS'1'
tp239
a((lp240
I5
aI4
aI10
aI8
aI3
aI4
aI5
aI14
aI7
aI2
aI9
aI7
aI3
aS'2'
tp241
a((lp242
I9
aI7
aI11
aI11
aI9
aI4
aI4
aI4
aI5
aI15
aI1
aI2
aI3
aS'3'
tp243
a((lp244
I13
aI4
aI10
aI8
aI8
aI12
aI11
aI4
aI9
aI9
aI9
aI11
aI16
aS'1'
tp245
a((lp246
I7
aI2
aI12
aI7
aI6
aI9
aI9
aI9
aI10
aI6
aI11
aI7
aI6
aS'2'
tp247
a((lp248
I15
aI5
aI11
aI8
aI7
aI11
aI10
aI7
aI12
aI8
aI9
aI10
aI11
aS'1'
tp249
a((lp250
I2
aI1
aI11
aI10
aI4
aI10
aI7
aI10
aI6
aI3
aI10
aI7
aI3
aS'2'
tp251
a((lp252
I3
aI5
aI11
aI11
aI3
aI7
aI6
aI12
aI6
aI3
aI8
aI10
aI6
aS'2'
tp253
a((lp254
I8
aI12
aI11
aI12
aI7
aI12
aI9
aI11
aI9
aI2
aI11
aI13
aI3
aS'2'
tp255
a((lp256
I12
aI4
aI13
aI8
aI8
aI9
aI9
aI6
aI7
aI5
aI10
aI11
aI11
aS'1'
tp257
a((lp258
I7
aI1
aI1
aI1
aI4
aI7
aI1
aI6
aI1
aI2
aI9
aI4
aI4
aS'2'
tp259
a((lp260
I4
aI4
aI6
aI9
aI4
aI10
aI5
aI9
aI6
aI2
aI7
aI8
aI2
aS'2'
tp261
a((lp262
I6
aI9
aI10
aI8
aI6
aI2
aI1
aI10
aI2
aI7
aI3
aI4
aI3
aS'3'
tp263
a((lp264
I8
aI2
aI9
aI7
aI3
aI7
aI1
aI16
aI5
aI7
aI4
aI2
aI5
aS'3'
tp265
a((lp266
I12
aI11
aI12
aI12
aI9
aI5
aI3
aI11
aI6
aI15
aI6
aI2
aI6
aS'3'
tp267
a((lp268
I10
aI1
aI4
aI6
aI4
aI7
aI7
aI4
aI6
aI6
aI11
aI8
aI2
aS'2'
tp269
a((lp270
I7
aI4
aI8
aI12
aI8
aI7
aI7
aI8
aI7
aI2
aI9
aI12
aI1
aS'2'
tp271
a((lp272
I7
aI3
aI9
aI11
aI4
aI11
aI11
aI9
aI8
aI5
aI4
aI11
aI1
aS'2'
tp273
a((lp274
I13
aI9
aI12
aI9
aI8
aI6
aI1
aI13
aI3
aI8
aI8
aI4
aI6
aS'3'
tp275
a((lp276
I13
aI4
aI10
aI6
aI7
aI11
aI10
aI5
aI8
aI4
aI10
aI10
aS'1'
tp277
a((lp278
I9
aI10
aI12
aI11
aI8
aI5
aI1
aI16
aI4
aI7
aI6
aI6
aI4
aS'3'
tp279
a((lp280
I14
aI4
aI12
aI7
aI5
aI10
aI11
aI4
aI11
aI7
aI12
aI14
aI13
aS'1'
tp281
a((lp282
I7
aI2
aI8
aI8
aI4
aI16
aI13
aI4
aI9
aI5
aI9
aI10
aI5
aS'2'
tp283
a((lp284
I11
aI11
aI8
aI10
aI7
aI4
aI1
aI11
aI6
aI5
aI2
aI3
aI8
aS'3'
tp285
a((lp286
I10
aI5
aI14
aI14
aI10
aI8
aI4
aI5
aI7
aI9
aI2
aI1
aI2
aS'3'
tp287
a((lp288
I16
aI4
aI13
aI14
aI6
aI12
aI4
aI14
aI14
aI18
aI2
aI5
aI5
aS'3'
tp289
a((lp290
I13
aI15
aI10
aI9
aI5
aI7
aI2
aI12
aI4
aI5
aI7
aI6
aI4
aS'3'
tp291
a((lp292
I11
aI4
aI8
aI6
aI5
aI9
aI8
aI5
aI6
aI5
aI8
aI10
aI13
aS'1'
tp293
a((lp294
I5
aI10
aI7
aI8
aI4
aI7
aI5
aI9
aI9
aI1
aI7
aI12
aI4
aS'2'
tp295
a((lp296
I11
aI5
aI13
aI6
aI7
aI13
aI11
aI7
aI8
aI8
aI9
aI11
aI13
aS'1'
tp297
a((lp298
I4
aI5
aI14
aI17
aI5
aI8
aI8
aI16
aI8
aI3
aI8
aI8
aI3
aS'2'
tp299
a((lp300
I10
aI4
aI7
aI2
aI5
aI11
aI12
aI2
aI15
aI10
aI10
aI11
aI12
aS'1'
tp301
a((lp302
I9
aI3
aI10
aI7
aI11
aI4
aI4
aI3
aI4
aI5
aI5
aI1
aI5
aS'3'
tp303
a((lp304
I7
aI11
aI10
aI10
aI4
aI9
aI3
aI13
aI4
aI10
aI2
aI3
aI4
aS'3'
tp305
a((lp306
I9
aI10
aI6
aI6
aI2
aI5
aI4
aI11
aI3
aI4
aI4
aI6
aI2
aS'2'
tp307
a((lp308
I14
aI4
aI8
aI6
aI7
aI14
aI12
aI3
aI10
aI8
aI7
aI14
aI10
aS'1'
tp309
a((lp310
I7
aI7
aI9
aI11
aI4
aI5
aI6
aI6
aI3
aI6
aI14
aI1
aS'2'
tp311
a((lp312
I11
aI7
aI10
aI9
aI10
aI5
aI2
aI14
aI6
aI13
aI2
aI3
aI8
aS'3'
tp313
a((lp314
I5
aI3
aI11
aI11
aI4
aI3
aI4
aI13
aI7
aI4
aI9
aI10
aI3
aS'2'
tp315
a((lp316
I8
aI4
aI6
aI10
aI3
aI8
aI6
aI7
aI7
aI3
aI9
aI16
aI6
aS'2'
tp317
a((lp318
I3
aI5
aI17
aI10
aI14
aI12
aI9
aI8
aI7
aI16
aI3
aS'2'
tp319
a((lp320
I16
aI5
aI11
aI6
aI9
aI18
aI12
aI4
aI11
aI11
aI6
aI15
aI16
aS'1'
tp321
a((lp322
I18
aI4
aI10
aI1
aI5
aI14
aI13
aI11
aI14
aI7
aI12
aI10
aI12
aS'1'
tp323
a((lp324
I6
aI9
aI9
aI7
aI4
aI12
aI11
aI11
aI14
aI2
aI14
aI11
aI2
aS'2'
tp325
a((lp326
I13
aI3
aI11
aI6
aI8
aI16
aI13
aI3
aI10
aI9
aI7
aI11
aI13
aS'1'
tp327
a((lp328
I7
aI9
aI13
aI16
aI6
aI6
aI1
aI17
aI5
aI10
aI3
aI4
aI8
aS'3'
tp329
a((lp330
I4
aI3
aI7
aI10
aI4
aI7
aI5
aI6
aI7
aI2
aI7
aI14
aI3
aS'2'
tp331
a((lp332
I1
aI3
aI9
aI11
aI3
aI10
aI7
aI14
aI10
aI1
aI11
aI2
aS'2'
tp333
a((lp334
I11
aI9
aI10
aI11
aI5
aI6
aI2
aI11
aI5
aI11
aI2
aI3
aI5
aS'3'
tp335
a((lp336
I10
aI8
aI11
aI4
aI11
aI9
aI6
aI10
aI3
aI4
aI13
aI2
aS'2'
tp337
a((lp338
I11
aI4
aI8
aI1
aI6
aI11
aI10
aI5
aI5
aI5
aI9
aI15
aI10
aS'1'
tp339
a((lp340
I6
aI4
aI10
aI12
aI4
aI5
aI6
aI11
aI7
aI2
aI13
aI7
aI3
aS'2'
tp341
a((lp342
I16
aI5
aI10
aI2
aI7
aI15
aI13
aI6
aI15
aI10
aI11
aI12
aI17
aS'1'
tp343
a((lp344
I6
aI4
aI8
aI8
aI2
aI5
aI7
aI9
aI7
aI4
aI8
aI13
aI3
aS'2'
tp345
a((lp346
I4
aI7
aI16
aI9
aI7
aI5
aI7
aI16
aI4
aI4
aI11
aI9
aI5
aS'2'
tp347
a((lp348
I9
aI6
aI9
aI9
aI4
aI3
aI1
aI12
aI2
aI14
aI2
aI3
aI3
aS'3'
tp349
a((lp350
I16
aI12
aI11
aI8
aI9
aI12
aI9
aI6
aI5
aI7
aI6
aI14
aI11
aS'1'
tp351
a((lp352
I13
aI9
aI12
aI5
aI10
aI11
aI11
aI2
aI8
aI6
aI8
aI14
aI8
aS'1'
tp353
a((lp354
I3
aI4
aI13
aI15
aI4
aI6
aI5
aI10
aI6
aI3
aI13
aI13
aI4
aS'2'
tp355
a((lp356
I10
aI8
aI13
aI10
aI6
aI4
aI1
aI14
aI2
aI6
aI5
aI7
aI5
aS'3'
tp357
a.