(lp1
(lp2
I6
aI2
aI5
aI2
aI3
aa(lp3
I6
aI2
aI4
aI1
aI2
aa(lp4
I5
aI2
aI3
aI1
aI2
aa(lp5
I4
aI3
aI1
aI0
aI1
aa(lp6
I6
aI3
aI4
aI1
aI2
aa(lp7
I6
aI2
aI5
aI1
aI3
aa(lp8
I5
aI3
aI1
aI0
aI1
aa(lp9
I6
aI2
aI4
aI1
aI2
aa(lp10
I5
aI3
aI1
aI0
aI1
aa(lp11
I4
aI3
aI1
aI0
aI1
aa(lp12
I6
aI3
aI4
aI1
aI2
aa(lp13
I6
aI3
aI4
aI1
aI2
aa(lp14
I5
aI2
aI3
aI1
aI2
aa(lp15
I5
aI2
aI4
aI1
aI2
aa(lp16
I5
aI2
aI5
aI1
aI3
aa(lp17
I7
aI3
aI6
aI2
aI3
aa(lp18
I6
aI3
aI5
aI1
aI3
aa(lp19
I5
aI3
aI1
aI0
aI1
aa(lp20
I5
aI2
aI3
aI1
aI2
aa(lp21
I4
aI3
aI1
aI0
aI1
aa(lp22
I6
aI3
aI5
aI2
aI3
aa(lp23
I6
aI2
aI5
aI1
aI3
aa(lp24
I5
aI3
aI4
aI1
aI2
aa(lp25
I6
aI2
aI5
aI1
aI3
aa(lp26
I6
aI3
aI4
aI1
aI3
aa(lp27
I6
aI3
aI5
aI2
aI3
aa(lp28
I6
aI2
aI5
aI1
aI2
aa(lp29
I4
aI3
aI1
aI0
aI1
aa(lp30
I5
aI2
aI3
aI1
aI2
aa(lp31
I5
aI2
aI3
aI1
aI2
aa(lp32
I5
aI3
aI1
aI0
aI1
aa(lp33
I6
aI2
aI4
aI1
aI3
aa(lp34
I5
aI3
aI4
aI1
aI2
aa(lp35
I7
aI3
aI5
aI1
aI3
aa(lp36
I6
aI2
aI5
aI1
aI3
aa(lp37
I6
aI2
aI4
aI1
aI2
aa(lp38
I5
aI4
aI1
aI0
aI1
aa(lp39
I4
aI3
aI1
aI0
aI1
aa(lp40
I5
aI3
aI4
aI1
aI2
aa(lp41
I5
aI3
aI1
aI0
aI1
aa(lp42
I6
aI2
aI4
aI1
aI2
aa(lp43
I7
aI2
aI6
aI2
aI3
aa(lp44
I6
aI2
aI4
aI1
aI3
aa(lp45
I7
aI3
aI4
aI1
aI2
aa(lp46
I5
aI3
aI5
aI1
aI3
aa(lp47
I5
aI3
aI1
aI0
aI1
aa(lp48
I7
aI3
aI6
aI1
aI3
aa(lp49
I6
aI3
aI5
aI2
aI3
aa(lp50
I5
aI3
aI1
aI0
aI1
aa(lp51
I4
aI3
aI1
aI0
aI1
aa(lp52
I6
aI3
aI5
aI2
aI3
aa(lp53
I5
aI2
aI5
aI2
aI3
aa(lp54
I5
aI3
aI1
aI0
aI1
aa(lp55
I6
aI3
aI5
aI2
aI3
aa(lp56
I4
aI3
aI1
aI0
aI1
aa(lp57
I5
aI3
aI1
aI0
aI1
aa(lp58
I4
aI3
aI1
aI0
aI1
aa(lp59
I5
aI3
aI1
aI0
aI1
aa(lp60
I4
aI3
aI1
aI0
aI1
aa(lp61
I5
aI2
aI4
aI1
aI2
aa(lp62
I6
aI2
aI4
aI1
aI2
aa(lp63
I7
aI3
aI6
aI2
aI3
aa(lp64
I5
aI2
aI4
aI1
aI2
aa(lp65
I6
aI3
aI5
aI1
aI3
aa(lp66
I4
aI3
aI1
aI0
aI1
aa(lp67
I5
aI3
aI1
aI0
aI1
aa(lp68
I5
aI3
aI1
aI0
aI1
aa(lp69
I6
aI2
aI4
aI1
aI2
aa(lp70
I6
aI3
aI4
aI1
aI2
aa(lp71
I7
aI3
aI6
aI2
aI3
aa(lp72
I4
aI3
aI1
aI0
aI1
aa(lp73
I6
aI3
aI4
aI1
aI2
aa(lp74
I5
aI2
aI4
aI1
aI2
aa(lp75
I6
aI2
aI4
aI1
aI2
aa(lp76
I4
aI2
aI1
aI0
aI1
aa(lp77
I5
aI2
aI3
aI1
aI2
aa(lp78
I5
aI3
aI1
aI0
aI1
aa(lp79
I7
aI2
aI6
aI1
aI3
aa(lp80
I5
aI3
aI4
aI1
aI2
aa(lp81
I6
aI2
aI5
aI1
aI3
aa(lp82
I5
aI3
aI1
aI0
aI1
aa(lp83
I5
aI2
aI3
aI1
aI2
aa(lp84
I5
aI4
aI1
aI0
aI1
aa(lp85
I5
aI2
aI4
aI1
aI2
aa(lp86
I4
aI2
aI4
aI1
aI3
aa(lp87
I6
aI2
aI4
aI1
aI2
aa(lp88
I4
aI3
aI1
aI0
aI1
aa(lp89
I5
aI2
aI4
aI1
aI2
aa(lp90
I5
aI4
aI1
aI0
aI1
aa(lp91
I6
aI2
aI5
aI2
aI3
aa(lp92
I6
aI3
aI5
aI2
aI3
aa(lp93
I4
aI3
aI1
aI0
aI1
aa(lp94
I6
aI3
aI5
aI2
aI3
aa(lp95
I6
aI3
aI5
aI2
aI3
aa(lp96
I6
aI3
aI4
aI1
aI2
aa(lp97
I6
aI2
aI4
aI1
aI2
aa(lp98
I5
aI3
aI4
aI1
aI2
aa(lp99
I6
aI3
aI4
aI1
aI2
aa(lp100
I7
aI2
aI6
aI1
aI3
aa(lp101
I5
aI3
aI1
aI0
aI1
aa(lp102
I6
aI3
aI5
aI1
aI2
aa(lp103
I6
aI3
aI5
aI2
aI3
aa(lp104
I5
aI3
aI1
aI0
aI1
aa(lp105
I5
aI2
aI3
aI1
aI2
aa(lp106
I5
aI2
aI5
aI2
aI3
aa(lp107
I6
aI2
aI5
aI1
aI3
aa(lp108
I6
aI3
aI5
aI2
aI3
aa(lp109
I4
aI2
aI3
aI1
aI2
aa(lp110
I5
aI3
aI4
aI1
aI2
aa(lp111
I5
aI3
aI1
aI0
aI1
aa(lp112
I5
aI2
aI3
aI1
aI2
aa(lp113
I6
aI2
aI4
aI1
aI2
aa(lp114
I6
aI3
aI5
aI2
aI3
aa(lp115
I7
aI2
aI6
aI2
aI3
aa(lp116
I4
aI3
aI1
aI0
aI1
aa(lp117
I5
aI3
aI1
aI0
aI1
aa(lp118
I5
aI4
aI1
aI0
aI1
aa(lp119
I5
aI3
aI1
aI0
aI1
aa(lp120
I4
aI3
aI1
aI0
aI1
aa(lp121
I6
aI2
aI4
aI1
aI2
aa(lp122
I6
aI3
aI4
aI1
aI2
aa(lp123
I5
aI3
aI1
aI0
aI1
aa(lp124
I4
aI2
aI1
aI0
aI1
aa(lp125
I5
aI3
aI1
aI0
aI1
aa(lp126
I4
aI3
aI1
aI0
aI1
aa(lp127
I5
aI2
aI5
aI1
aI3
aa(lp128
I5
aI3
aI1
aI0
aI1
aa(lp129
I6
aI3
aI4
aI1
aI3
aa(lp130
I6
aI3
aI5
aI2
aI3
aa(lp131
I5
aI2
aI4
aI1
aI2
aa(lp132
I6
aI2
aI5
aI1
aI3
aa(lp133
I6
aI3
aI5
aI2
aI3
aa(lp134
I5
aI3
aI1
aI0
aI1
aa(lp135
I5
aI3
aI1
aI0
aI1
aa(lp136
I6
aI2
aI4
aI1
aI2
aa(lp137
I5
aI2
aI4
aI1
aI2
aa(lp138
I5
aI3
aI1
aI0
aI1
aa(lp139
I7
aI3
aI6
aI2
aI3
aa(lp140
I7
aI3
aI6
aI2
aI3
aa(lp141
I7
aI3
aI5
aI2
aI3
aa(lp142
I4
aI3
aI1
aI0
aI1
aa(lp143
I6
aI3
aI5
aI2
aI3
aa(lp144
I6
aI3
aI5
aI2
aI3
aa(lp145
I5
aI2
aI3
aI1
aI2
aa(lp146
I6
aI2
aI4
aI1
aI2
aa(lp147
I6
aI3
aI6
aI2
aI3
aa(lp148
I5
aI3
aI1
aI0
aI1
aa(lp149
I4
aI3
aI1
aI0
aI1
aa(lp150
I5
aI2
aI4
aI2
aI3
aa(lp151
I5
aI2
aI4
aI1
aI2
aa.