(lp1
((lp2
F6
aF91
aF0
aF0
aF0
aF29.800000000000001
aF0.501
aF31
aS'0'
tp3
a((lp4
F1
aF89
aF66
aF23
aF94
aF28.100000000000001
aF0.16700000000000001
aF21
aS'0'
tp5
a((lp6
F0
aF102
aF78
aF40
aF90
aF34.5
aF0.23799999999999999
aF24
aS'0'
tp7
a((lp8
F2
aF108
aF52
aF26
aF63
aF32.5
aF0.318
aF22
aS'0'
tp9
a((lp10
F7
aF62
aF78
aF0
aF0
aF32.600000000000001
aF0.39100000000000001
aF41
aS'0'
tp11
a((lp12
F12
aF100
aF84
aF33
aF105
aF30
aF0.48799999999999999
aF46
aS'0'
tp13
a((lp14
F4
aF96
aF56
aF17
aF49
aF20.800000000000001
aF0.34000000000000002
aF26
aS'0'
tp15
a((lp16
F1
aF100
aF66
aF29
aF196
aF32
aF0.44400000000000001
aF42
aS'0'
tp17
a((lp18
F7.2000000000000002
aF3.6000000000000001
aF6.0999999999999996
aF2.5
aS'3'
tp19
a((lp20
F2
aF118
aF80
aF0
aF0
aF42.899999999999999
aF0.69299999999999995
aF21
aS'1'
tp21
a((lp22
F5
aF73
aF60
aF0
aF0
aF26.800000000000001
aF0.26800000000000002
aF27
aS'0'
tp23
a((lp24
F4
aF131
aF68
aF21
aF166
aF33.100000000000001
aF0.16
aF28
aS'0'
tp25
a((lp26
F4
aF115
aF72
aF0
aF0
aF28.899999999999999
aF0.376
aF46
aS'1'
tp27
a((lp28
F5
aF147
aF78
aF0
aF0
aF33.700000000000003
aF0.218
aF65
aS'0'
tp29
a((lp30
F3
aF96
aF56
aF34
aF115
aF24.699999999999999
aF0.94399999999999995
aF39
aS'0'
tp31
a((lp32
F10
aF115
aF98
aF0
aF0
aF24
aF1.022
aF34
aS'0'
tp33
a((lp34
F1
aF102
aF74
aF0
aF0
aF39.5
aF0.29299999999999998
aF42
aS'1'
tp35
a((lp36
F4
aF90
aF88
aF47
aF54
aF37.700000000000003
aF0.36199999999999999
aF29
aS'0'
tp37
a((lp38
F5.4000000000000004
aF3.3999999999999999
aF1.5
aF0.40000000000000002
aS'1'
tp39
a((lp40
F6.7000000000000002
aF3.1000000000000001
aF4.7000000000000002
aF1.5
aS'2'
tp41
a((lp42
F8
aF188
aF78
aF0
aF0
aF47.899999999999999
aF0.13700000000000001
aF43
aS'1'
tp43
a((lp44
F6.7999999999999998
aF3
aF5.5
aF2.1000000000000001
aS'3'
tp45
a((lp46
F0
aF91
aF80
aF0
aF0
aF32.399999999999999
aF0.60099999999999998
aF27
aS'0'
tp47
a((lp48
F8
aF126
aF88
aF36
aF108
aF38.5
aF0.34899999999999998
aF49
aS'0'
tp49
a((lp50
F6
aF103
aF72
aF32
aF190
aF37.700000000000003
aF0.32400000000000001
aF55
aS'0'
tp51
a((lp52
F6
aF154
aF78
aF41
aF140
aF46.100000000000001
aF0.57099999999999995
aF27
aS'0'
tp53
a((lp54
F4.5999999999999996
aF3.2000000000000002
aF1.3999999999999999
aF0.20000000000000001
aS'1'
tp55
a((lp56
F2
aF75
aF64
aF24
aF55
aF29.699999999999999
aF0.37
aF33
aS'0'
tp57
a((lp58
F3
aF81
aF86
aF16
aF66
aF27.5
aF0.30599999999999999
aF22
aS'0'
tp59
a((lp60
F1
aF87
aF68
aF34
aF77
aF37.600000000000001
aF0.40100000000000002
aF24
aS'0'
tp61
a((lp62
F12
aF121
aF78
aF17
aF0
aF26.5
aF0.25900000000000001
aF62
aS'0'
tp63
a((lp64
F5.2000000000000002
aF4.0999999999999996
aF1.5
aF0.10000000000000001
aS'1'
tp65
a((lp66
F1
aF100
aF74
aF12
aF46
aF19.5
aF0.14899999999999999
aF28
aS'0'
tp67
a((lp68
F1
aF196
aF76
aF36
aF249
aF36.5
aF0.875
aF29
aS'1'
tp69
a((lp70
F0
aF126
aF86
aF27
aF120
aF27.399999999999999
aF0.51500000000000001
aF21
aS'0'
tp71
a((lp72
F13
aF76
aF60
aF0
aF0
aF32.799999999999997
aF0.17999999999999999
aF41
aS'0'
tp73
a((lp74
F0
aF189
aF104
aF25
aF0
aF34.299999999999997
aF0.435
aF41
aS'1'
tp75
a((lp76
F0
aF173
aF78
aF32
aF265
aF46.5
aF1.159
aF58
aS'0'
tp77
a((lp78
F1
aF130
aF60
aF23
aF170
aF28.600000000000001
aF0.69199999999999995
aF21
aS'0'
tp79
a((lp80
F6.0999999999999996
aF2.7999999999999998
aF4
aF1.3
aS'2'
tp81
a((lp82
F7
aF187
aF50
aF33
aF392
aF33.899999999999999
aF0.82599999999999996
aF34
aS'1'
tp83
a((lp84
F0
aF137
aF68
aF14
aF148
aF24.800000000000001
aF0.14299999999999999
aF21
aS'0'
tp85
a((lp86
F1
aF111
aF94
aF0
aF0
aF32.799999999999997
aF0.26500000000000001
aF45
aS'0'
tp87
a((lp88
F3
aF158
aF70
aF30
aF328
aF35.5
aF0.34399999999999997
aF35
aS'1'
tp89
a((lp90
F1
aF97
aF70
aF15
aF0
aF18.199999999999999
aF0.14699999999999999
aF21
aS'0'
tp91
a((lp92
F4
aF85
aF58
aF22
aF49
aF27.800000000000001
aF0.30599999999999999
aF28
aS'0'
tp93
a((lp94
F0
aF111
aF65
aF0
aF0
aF24.600000000000001
aF0.66000000000000003
aF31
aS'0'
tp95
a((lp96
F0
aF123
aF88
aF37
aF0
aF35.200000000000003
aF0.19700000000000001
aF29
aS'0'
tp97
a((lp98
F3
aF111
aF90
aF12
aF78
aF28.399999999999999
aF0.495
aF29
aS'0'
tp99
a((lp100
F4
aF95
aF60
aF32
aF0
aF35.399999999999999
aF0.28399999999999997
aF28
aS'0'
tp101
a((lp102
F6.2999999999999998
aF3.2999999999999998
aF6
aF2.5
aS'3'
tp103
a((lp104
F6
aF134
aF70
aF23
aF130
aF35.399999999999999
aF0.54200000000000004
aF29
aS'1'
tp105
a((lp106
F4.5999999999999996
aF3.1000000000000001
aF1.5
aF0.20000000000000001
aS'1'
tp107
a((lp108
F9
aF124
aF70
aF33
aF402
aF35.399999999999999
aF0.28199999999999997
aF34
aS'0'
tp109
a((lp110
F6
aF108
aF44
aF20
aF130
aF24
aF0.81299999999999994
aF35
aS'0'
tp111
a((lp112
F9
aF122
aF56
aF0
aF0
aF33.299999999999997
aF1.1140000000000001
aF33
aS'1'
tp113
a((lp114
F6.2999999999999998
aF2.2999999999999998
aF4.4000000000000004
aF1.3
aS'2'
tp115
a((lp116
F7
aF179
aF95
aF31
aF0
aF34.200000000000003
aF0.16400000000000001
aF60
aS'0'
tp117
a((lp118
F0
aF95
aF80
aF45
aF92
aF36.5
aF0.33000000000000002
aF26
aS'0'
tp119
a((lp120
F1
aF99
aF58
aF10
aF0
aF25.399999999999999
aF0.55100000000000005
aF21
aS'0'
tp121
a((lp122
F1
aF125
aF50
aF40
aF167
aF33.299999999999997
aF0.96199999999999997
aF28
aS'1'
tp123
a((lp124
F8
aF151
aF78
aF32
aF210
aF42.899999999999999
aF0.51600000000000001
aF36
aS'1'
tp125
a((lp126
F6
aF2.2000000000000002
aF5
aF1.5
aS'3'
tp127
a((lp128
F4
aF125
aF70
aF18
aF122
aF28.899999999999999
aF1.1439999999999999
aF45
aS'1'
tp129
a((lp130
F1
aF151
aF60
aF0
aF0
aF26.100000000000001
aF0.17899999999999999
aF22
aS'0'
tp131
a((lp132
F0
aF84
aF82
aF31
aF125
aF38.200000000000003
aF0.23300000000000001
aF23
aS'0'
tp133
a((lp134
F0
aF141
aF0
aF0
aF0
aF42.399999999999999
aF0.20499999999999999
aF29
aS'1'
tp135
a((lp136
F0
aF118
aF64
aF23
aF89
aF0
aF1.7310000000000001
aF21
aS'0'
tp137
a((lp138
F5
aF115
aF98
aF0
aF0
aF52.899999999999999
aF0.20899999999999999
aF28
aS'1'
tp139
a((lp140
F1
aF107
aF72
aF30
aF82
aF30.800000000000001
aF0.82099999999999995
aF24
aS'0'
tp141
a((lp142
F2
aF105
aF58
aF40
aF94
aF34.899999999999999
aF0.22500000000000001
aF25
aS'0'
tp143
a((lp144
F9
aF72
aF78
aF25
aF0
aF31.600000000000001
aF0.28000000000000003
aF38
aS'0'
tp145
a((lp146
F1
aF101
aF50
aF15
aF36
aF24.199999999999999
aF0.52600000000000002
aF26
aS'0'
tp147
a((lp148
F10
aF90
aF85
aF32
aF0
aF34.899999999999999
aF0.82499999999999996
aF56
aS'1'
tp149
a((lp150
F8
aF154
aF78
aF32
aF0
aF32.399999999999999
aF0.443
aF45
aS'1'
tp151
a((lp152
F2
aF88
aF74
aF19
aF53
aF29
aF0.22900000000000001
aF22
aS'0'
tp153
a((lp154
F3
aF111
aF56
aF39
aF0
aF30.100000000000001
aF0.55700000000000005
aF30
aS'0'
tp155
a((lp156
F6.2999999999999998
aF2.7999999999999998
aF5.0999999999999996
aF1.5
aS'3'
tp157
a((lp158
F8
aF124
aF76
aF24
aF600
aF28.699999999999999
aF0.68700000000000006
aF52
aS'1'
tp159
a((lp160
F6
aF87
aF80
aF0
aF0
aF23.199999999999999
aF0.084000000000000005
aF32
aS'0'
tp161
a((lp162
F6
aF125
aF68
aF30
aF120
aF30
aF0.46400000000000002
aF32
aS'0'
tp163
a((lp164
F5.0999999999999996
aF3.5
aF1.3999999999999999
aF0.29999999999999999
aS'1'
tp165
a((lp166
F6.9000000000000004
aF3.1000000000000001
aF4.9000000000000004
aF1.5
aS'2'
tp167
a((lp168
F1
aF128
aF88
aF39
aF110
aF36.5
aF1.0569999999999999
aF37
aS'1'
tp169
a((lp170
F13
aF152
aF90
aF33
aF29
aF26.800000000000001
aF0.73099999999999998
aF43
aS'1'
tp171
a((lp172
F3
aF130
aF78
aF23
aF79
aF28.399999999999999
aF0.32300000000000001
aF34
aS'1'
tp173
a((lp174
F6.2000000000000002
aF2.8999999999999999
aF4.2999999999999998
aF1.3
aS'2'
tp175
a((lp176
F10
aF133
aF68
aF0
aF0
aF27
aF0.245
aF36
aS'0'
tp177
a((lp178
F1
aF103
aF30
aF38
aF83
aF43.299999999999997
aF0.183
aF33
aS'0'
tp179
a((lp180
F3
aF100
aF68
aF23
aF81
aF31.600000000000001
aF0.94899999999999995
aF28
aS'0'
tp181
a((lp182
F3
aF82
aF70
aF0
aF0
aF21.100000000000001
aF0.38900000000000001
aF25
aS'0'
tp183
a((lp184
F1
aF91
aF54
aF25
aF100
aF25.199999999999999
aF0.23400000000000001
aF23
aS'0'
tp185
a((lp186
F1
aF149
aF68
aF29
aF127
aF29.300000000000001
aF0.34899999999999998
aF42
aS'1'
tp187
a((lp188
F3
aF115
aF66
aF39
aF140
aF38.100000000000001
aF0.14999999999999999
aF28
aS'0'
tp189
a((lp190
F6.7999999999999998
aF2.7999999999999998
aF4.7999999999999998
aF1.3999999999999999
aS'2'
tp191
a((lp192
F4
aF103
aF60
aF33
aF192
aF24
aF0.96599999999999997
aF33
aS'0'
tp193
a((lp194
F13
aF129
aF0
aF30
aF0
aF39.899999999999999
aF0.56899999999999995
aF44
aS'1'
tp195
a((lp196
F4
aF110
aF76
aF20
aF100
aF28.399999999999999
aF0.11799999999999999
aF27
aS'0'
tp197
a((lp198
F2
aF82
aF52
aF22
aF115
aF28.5
aF1.6990000000000001
aF25
aS'0'
tp199
a((lp200
F7
aF195
aF70
aF33
aF145
aF25.100000000000001
aF0.16300000000000001
aF55
aS'1'
tp201
a((lp202
F5.7999999999999998
aF2.7000000000000002
aF5.0999999999999996
aF1.8999999999999999
aS'3'
tp203
a((lp204
F9
aF130
aF70
aF0
aF0
aF34.200000000000003
aF0.65200000000000002
aF45
aS'1'
tp205
a((lp206
F7
aF168
aF88
aF42
aF321
aF38.200000000000003
aF0.78700000000000003
aF40
aS'1'
tp207
a((lp208
F5.5999999999999996
aF2.7000000000000002
aF4.2000000000000002
aF1.3
aS'2'
tp209
a((lp210
F3
aF84
aF68
aF30
aF106
aF31.899999999999999
aF0.59099999999999997
aF25
aS'0'
tp211
a((lp212
F3
aF128
aF78
aF0
aF0
aF21.100000000000001
aF0.26800000000000002
aF55
aS'0'
tp213
a((lp214
F1
aF93
aF70
aF31
aF0
aF30.399999999999999
aF0.315
aF23
aS'0'
tp215
a((lp216
F2
aF68
aF62
aF13
aF15
aF20.100000000000001
aF0.25700000000000001
aF23
aS'0'
tp217
a((lp218
F8
aF85
aF55
aF20
aF0
aF24.399999999999999
aF0.13600000000000001
aF42
aS'0'
tp219
a((lp220
F5
aF105
aF72
aF29
aF325
aF36.899999999999999
aF0.159
aF28
aS'0'
tp221
a((lp222
F3
aF99
aF80
aF11
aF64
aF19.300000000000001
aF0.28399999999999997
aF30
aS'0'
tp223
a((lp224
F3
aF122
aF78
aF0
aF0
aF23
aF0.254
aF40
aS'0'
tp225
a((lp226
F5.7000000000000002
aF3
aF4.2000000000000002
aF1.2
aS'2'
tp227
a((lp228
F2
aF129
aF0
aF0
aF0
aF38.5
aF0.30399999999999999
aF41
aS'0'
tp229
a((lp230
F4
aF114
aF65
aF0
aF0
aF21.899999999999999
aF0.432
aF37
aS'0'
tp231
a((lp232
F9
aF91
aF68
aF0
aF0
aF24.199999999999999
aF0.20000000000000001
aF58
aS'0'
tp233
a((lp234
F0
aF118
aF84
aF47
aF230
aF45.799999999999997
aF0.55100000000000005
aF31
aS'1'
tp235
a((lp236
F8
aF74
aF70
aF40
aF49
aF35.299999999999997
aF0.70499999999999996
aF39
aS'0'
tp237
a((lp238
F4
aF129
aF60
aF12
aF231
aF27.5
aF0.52700000000000002
aF31
aS'0'
tp239
a((lp240
F6
aF2.7000000000000002
aF5.0999999999999996
aF1.6000000000000001
aS'2'
tp241
a((lp242
F5.7999999999999998
aF2.7000000000000002
aF3.8999999999999999
aF1.2
aS'2'
tp243
a((lp244
F0
aF135
aF68
aF42
aF250
aF42.299999999999997
aF0.36499999999999999
aF24
aS'1'
tp245
a((lp246
F5
aF122
aF86
aF0
aF0
aF34.700000000000003
aF0.28999999999999998
aF33
aS'0'
tp247
a((lp248
F0
aF101
aF62
aF0
aF0
aF21.899999999999999
aF0.33600000000000002
aF25
aS'0'
tp249
a((lp250
F6
aF114
aF0
aF0
aF0
aF0
aF0.189
aF26
aS'0'
tp251
a((lp252
F6
aF102
aF82
aF0
aF0
aF30.800000000000001
aF0.17999999999999999
aF36
aS'1'
tp253
a((lp254
F7
aF196
aF90
aF0
aF0
aF39.799999999999997
aF0.45100000000000001
aF41
aS'1'
tp255
a((lp256
F7
aF178
aF84
aF0
aF0
aF39.899999999999999
aF0.33100000000000002
aF41
aS'1'
tp257
a((lp258
F2
aF92
aF52
aF0
aF0
aF30.100000000000001
aF0.14099999999999999
aF22
aS'0'
tp259
a((lp260
F0
aF108
aF68
aF20
aF0
aF27.300000000000001
aF0.78700000000000003
aF32
aS'0'
tp261
a((lp262
F5
aF136
aF84
aF41
aF88
aF35
aF0.28599999999999998
aF35
aS'1'
tp263
a((lp264
F3
aF61
aF82
aF28
aF0
aF34.399999999999999
aF0.24299999999999999
aF46
aS'0'
tp265
a((lp266
F1
aF88
aF78
aF29
aF76
aF32
aF0.36499999999999999
aF29
aS'0'
tp267
a((lp268
F3
aF116
aF74
aF15
aF105
aF26.300000000000001
aF0.107
aF24
aS'0'
tp269
a((lp270
F2
aF87
aF58
aF16
aF52
aF32.700000000000003
aF0.16600000000000001
aF25
aS'0'
tp271
a((lp272
F8
aF126
aF74
aF38
aF75
aF25.899999999999999
aF0.16200000000000001
aF39
aS'0'
tp273
a((lp274
F9
aF119
aF80
aF35
aF0
aF29
aF0.26300000000000001
aF29
aS'1'
tp275
a((lp276
F1
aF167
aF74
aF17
aF144
aF23.399999999999999
aF0.44700000000000001
aF33
aS'1'
tp277
a((lp278
F2
aF95
aF54
aF14
aF88
aF26.100000000000001
aF0.748
aF22
aS'0'
tp279
a((lp280
F6
aF92
aF62
aF32
aF126
aF32
aF0.085000000000000006
aF46
aS'0'
tp281
a((lp282
F1
aF144
aF82
aF46
aF180
aF46.100000000000001
aF0.33500000000000002
aF46
aS'1'
tp283
a((lp284
F5.5
aF4.2000000000000002
aF1.3999999999999999
aF0.20000000000000001
aS'1'
tp285
a((lp286
F0
aF131
aF88
aF0
aF0
aF31.600000000000001
aF0.74299999999999999
aF32
aS'1'
tp287
a((lp288
F3
aF78
aF50
aF32
aF88
aF31
aF0.248
aF26
aS'1'
tp289
a((lp290
F2
aF155
aF52
aF27
aF540
aF38.700000000000003
aF0.23999999999999999
aF25
aS'1'
tp291
a((lp292
F9
aF106
aF52
aF0
aF0
aF31.199999999999999
aF0.38
aF42
aS'0'
tp293
a((lp294
F0
aF129
aF80
aF0
aF0
aF31.199999999999999
aF0.70299999999999996
aF29
aS'0'
tp295
a((lp296
F0
aF102
aF86
aF17
aF105
aF29.300000000000001
aF0.69499999999999995
aF27
aS'0'
tp297
a((lp298
F4
aF189
aF110
aF31
aF0
aF28.5
aF0.68000000000000005
aF37
aS'0'
tp299
a((lp300
F3
aF116
aF0
aF0
aF0
aF23.5
aF0.187
aF23
aS'0'
tp301
a((lp302
F10
aF101
aF86
aF37
aF0
aF45.600000000000001
aF1.1359999999999999
aF38
aS'1'
tp303
a((lp304
F0
aF67
aF76
aF0
aF0
aF45.299999999999997
aF0.19400000000000001
aF46
aS'0'
tp305
a((lp306
F9
aF145
aF88
aF34
aF165
aF30.300000000000001
aF0.77100000000000002
aF53
aS'1'
tp307
a((lp308
F3
aF78
aF70
aF0
aF0
aF32.5
aF0.27000000000000002
aF39
aS'0'
tp309
a((lp310
F2
aF94
aF68
aF18
aF76
aF26
aF0.56100000000000005
aF21
aS'0'
tp311
a((lp312
F6.7000000000000002
aF2.5
aF5.7999999999999998
aF1.8
aS'3'
tp313
a((lp314
F1
aF83
aF68
aF0
aF0
aF18.199999999999999
aF0.624
aF27
aS'0'
tp315
a((lp316
F2
aF108
aF64
aF0
aF0
aF30.800000000000001
aF0.158
aF21
aS'0'
tp317
a((lp318
F4
aF141
aF74
aF0
aF0
aF27.600000000000001
aF0.24399999999999999
aF40
aS'0'
tp319
a((lp320
F1
aF111
aF86
aF19
aF0
aF30.100000000000001
aF0.14299999999999999
aF23
aS'0'
tp321
a((lp322
F2
aF88
aF58
aF26
aF16
aF28.399999999999999
aF0.76600000000000001
aF22
aS'0'
tp323
a((lp324
F0
aF105
aF64
aF41
aF142
aF41.5
aF0.17299999999999999
aF22
aS'0'
tp325
a((lp326
F0
aF120
aF74
aF18
aF63
aF30.5
aF0.28499999999999998
aF26
aS'0'
tp327
a((lp328
F6.9000000000000004
aF3.1000000000000001
aF5.4000000000000004
aF2.1000000000000001
aS'3'
tp329
a((lp330
F0
aF95
aF64
aF39
aF105
aF44.600000000000001
aF0.36599999999999999
aF22
aS'0'
tp331
a((lp332
F7.2000000000000002
aF3
aF5.7999999999999998
aF1.6000000000000001
aS'3'
tp333
a((lp334
F2
aF105
aF75
aF0
aF0
aF23.300000000000001
aF0.56000000000000005
aF53
aS'0'
tp335
a((lp336
F0
aF123
aF72
aF0
aF0
aF36.299999999999997
aF0.25800000000000001
aF52
aS'1'
tp337
a((lp338
F4
aF84
aF90
aF23
aF56
aF39.5
aF0.159
aF25
aS'0'
tp339
a((lp340
F6
aF190
aF92
aF0
aF0
aF35.5
aF0.27800000000000002
aF66
aS'1'
tp341
a((lp342
F1
aF80
aF55
aF0
aF0
aF19.100000000000001
aF0.25800000000000001
aF21
aS'0'
tp343
a((lp344
F12
aF92
aF62
aF7
aF258
aF27.600000000000001
aF0.92600000000000005
aF44
aS'1'
tp345
a((lp346
F0
aF141
aF84
aF26
aF0
aF32.399999999999999
aF0.433
aF22
aS'0'
tp347
a((lp348
F5
aF136
aF82
aF0
aF0
aF0
aF0.64000000000000001
aF69
aS'0'
tp349
a((lp350
F3
aF170
aF64
aF37
aF225
aF34.5
aF0.35599999999999998
aF30
aS'1'
tp351
a((lp352
F2
aF108
aF62
aF32
aF56
aF25.199999999999999
aF0.128
aF21
aS'0'
tp353
a((lp354
F2
aF125
aF60
aF20
aF140
aF33.799999999999997
aF0.087999999999999995
aF31
aS'0'
tp355
a((lp356
F4
aF142
aF86
aF0
aF0
aF44
aF0.64500000000000002
aF22
aS'1'
tp357
a((lp358
F9
aF120
aF72
aF22
aF56
aF20.800000000000001
aF0.73299999999999998
aF48
aS'0'
tp359
a((lp360
F10
aF139
aF80
aF0
aF0
aF27.100000000000001
aF1.4410000000000001
aF57
aS'0'
tp361
a((lp362
F6
aF194
aF78
aF0
aF0
aF23.5
aF0.129
aF59
aS'1'
tp363
a((lp364
F6.5
aF3
aF5.7999999999999998
aF2.2000000000000002
aS'3'
tp365
a((lp366
F6.4000000000000004
aF3.2000000000000002
aF5.2999999999999998
aF2.2999999999999998
aS'3'
tp367
a((lp368
F1
aF79
aF60
aF42
aF48
aF43.5
aF0.67800000000000005
aF23
aS'0'
tp369
a((lp370
F4.7000000000000002
aF3.2000000000000002
aF1.6000000000000001
aF0.20000000000000001
aS'1'
tp371
a((lp372
F5
aF88
aF66
aF21
aF23
aF24.399999999999999
aF0.34200000000000003
aF30
aS'0'
tp373
a((lp374
F8
aF95
aF72
aF0
aF0
aF36.799999999999997
aF0.48499999999999999
aF57
aS'0'
tp375
a((lp376
F14
aF175
aF62
aF30
aF0
aF33.600000000000001
aF0.21199999999999999
aF38
aS'1'
tp377
a((lp378
F5
aF44
aF62
aF0
aF0
aF25
aF0.58699999999999997
aF36
aS'0'
tp379
a((lp380
F7
aF184
aF84
aF33
aF0
aF35.5
aF0.35499999999999998
aF41
aS'1'
tp381
a((lp382
F6.2999999999999998
aF2.8999999999999999
aF5.5999999999999996
aF1.8
aS'3'
tp383
a((lp384
F2
aF81
aF60
aF22
aF0
aF27.699999999999999
aF0.28999999999999998
aF25
aS'0'
tp385
a((lp386
F4
aF158
aF78
aF0
aF0
aF32.899999999999999
aF0.80300000000000005
aF31
aS'1'
tp387
a((lp388
F4.7999999999999998
aF3.1000000000000001
aF1.6000000000000001
aF0.20000000000000001
aS'1'
tp389
a((lp390
F1
aF114
aF66
aF36
aF200
aF38.100000000000001
aF0.28899999999999998
aF21
aS'0'
tp391
a((lp392
F1
aF81
aF72
aF18
aF40
aF26.600000000000001
aF0.28299999999999997
aF24
aS'0'
tp393
a((lp394
F1
aF119
aF54
aF13
aF50
aF22.300000000000001
aF0.20499999999999999
aF24
aS'0'
tp395
a((lp396
F6
aF99
aF60
aF19
aF54
aF26.899999999999999
aF0.497
aF32
aS'0'
tp397
a((lp398
F7.7000000000000002
aF2.6000000000000001
aF6.9000000000000004
aF2.2999999999999998
aS'3'
tp399
a((lp400
F0
aF119
aF64
aF18
aF92
aF34.899999999999999
aF0.72499999999999998
aF23
aS'0'
tp401
a((lp402
F4
aF94
aF65
aF22
aF0
aF24.699999999999999
aF0.14799999999999999
aF21
aS'0'
tp403
a((lp404
F6
aF147
aF80
aF0
aF0
aF29.5
aF0.17799999999999999
aF50
aS'1'
tp405
a((lp406
F5.0999999999999996
aF3.7999999999999998
aF1.5
aF0.29999999999999999
aS'1'
tp407
a((lp408
F2
aF101
aF58
aF35
aF90
aF21.800000000000001
aF0.155
aF22
aS'0'
tp409
a((lp410
F4
aF148
aF60
aF27
aF318
aF30.899999999999999
aF0.14999999999999999
aF29
aS'1'
tp411
a((lp412
F7
aF159
aF66
aF0
aF0
aF30.399999999999999
aF0.38300000000000001
aF36
aS'1'
tp413
a((lp414
F8
aF100
aF76
aF0
aF0
aF38.700000000000003
aF0.19
aF42
aS'0'
tp415
a((lp416
F1
aF112
aF80
aF45
aF132
aF34.799999999999997
aF0.217
aF24
aS'0'
tp417
a((lp418
F8
aF105
aF100
aF36
aF0
aF43.299999999999997
aF0.23899999999999999
aF45
aS'1'
tp419
a((lp420
F12
aF140
aF82
aF43
aF325
aF39.200000000000003
aF0.52800000000000002
aF58
aS'1'
tp421
a((lp422
F1
aF147
aF94
aF41
aF0
aF49.299999999999997
aF0.35799999999999998
aF27
aS'1'
tp423
a((lp424
F1
aF77
aF56
aF30
aF56
aF33.299999999999997
aF1.2509999999999999
aF24
aS'0'
tp425
a((lp426
F8
aF133
aF72
aF0
aF0
aF32.899999999999999
aF0.27000000000000002
aF39
aS'1'
tp427
a((lp428
F5.7000000000000002
aF4.4000000000000004
aF1.5
aF0.40000000000000002
aS'1'
tp429
a((lp430
F3
aF112
aF74
aF30
aF0
aF31.600000000000001
aF0.19700000000000001
aF25
aS'1'
tp431
a((lp432
F4
aF154
aF72
aF29
aF126
aF31.300000000000001
aF0.33800000000000002
aF37
aS'0'
tp433
a((lp434
F0
aF138
aF0
aF0
aF0
aF36.299999999999997
aF0.93300000000000005
aF25
aS'1'
tp435
a((lp436
F6
aF105
aF80
aF28
aF0
aF32.5
aF0.878
aF26
aS'0'
tp437
a((lp438
F3
aF158
aF76
aF36
aF245
aF31.600000000000001
aF0.85099999999999998
aF28
aS'1'
tp439
a((lp440
F5.4000000000000004
aF3.8999999999999999
aF1.3
aF0.40000000000000002
aS'1'
tp441
a((lp442
F2
aF109
aF92
aF0
aF0
aF42.700000000000003
aF0.84499999999999997
aF54
aS'0'
tp443
a((lp444
F5.9000000000000004
aF3
aF5.0999999999999996
aF1.8
aS'3'
tp445
a((lp446
F3
aF90
aF78
aF0
aF0
aF42.700000000000003
aF0.55900000000000005
aF21
aS'0'
tp447
a((lp448
F3
aF102
aF74
aF0
aF0
aF29.5
aF0.121
aF32
aS'0'
tp449
a((lp450
F9
aF57
aF80
aF37
aF0
aF32.799999999999997
aF0.096000000000000002
aF41
aS'0'
tp451
a((lp452
F0
aF101
aF65
aF28
aF0
aF24.600000000000001
aF0.23699999999999999
aF22
aS'0'
tp453
a((lp454
F9
aF152
aF78
aF34
aF171
aF34.200000000000003
aF0.89300000000000002
aF33
aS'1'
tp455
a((lp456
F3
aF130
aF64
aF0
aF0
aF23.100000000000001
aF0.314
aF22
aS'0'
tp457
a((lp458
F3
aF113
aF50
aF10
aF85
aF29.5
aF0.626
aF25
aS'0'
tp459
a((lp460
F0
aF125
aF68
aF0
aF0
aF24.699999999999999
aF0.20599999999999999
aF21
aS'0'
tp461
a((lp462
F3
aF174
aF58
aF22
aF194
aF32.899999999999999
aF0.59299999999999997
aF36
aS'1'
tp463
a((lp464
F3
aF96
aF78
aF39
aF0
aF37.299999999999997
aF0.23799999999999999
aF40
aS'0'
tp465
a((lp466
F1
aF109
aF38
aF18
aF120
aF23.100000000000001
aF0.40699999999999997
aF26
aS'0'
tp467
a((lp468
F4
aF122
aF68
aF0
aF0
aF35
aF0.39400000000000002
aF29
aS'0'
tp469
a((lp470
F5.5
aF2.3999999999999999
aF3.7999999999999998
aF1.1000000000000001
aS'2'
tp471
a((lp472
F2
aF122
aF70
aF27
aF0
aF36.799999999999997
aF0.34000000000000002
aF27
aS'0'
tp473
a((lp474
F10
aF122
aF68
aF0
aF0
aF31.199999999999999
aF0.25800000000000001
aF41
aS'0'
tp475
a((lp476
F2
aF100
aF64
aF23
aF0
aF29.699999999999999
aF0.36799999999999999
aF21
aS'0'
tp477
a((lp478
F5.7000000000000002
aF2.8999999999999999
aF4.2000000000000002
aF1.3
aS'2'
tp479
a((lp480
F1
aF128
aF98
aF41
aF58
aF32
aF1.321
aF33
aS'1'
tp481
a((lp482
F3
aF123
aF100
aF35
aF240
aF57.299999999999997
aF0.88
aF22
aS'0'
tp483
a((lp484
F0
aF179
aF90
aF27
aF0
aF44.100000000000001
aF0.68600000000000005
aF23
aS'1'
tp485
a((lp486
F6.7000000000000002
aF3
aF5.2000000000000002
aF2.2999999999999998
aS'3'
tp487
a((lp488
F7
aF125
aF86
aF0
aF0
aF37.600000000000001
aF0.30399999999999999
aF51
aS'0'
tp489
a((lp490
F0
aF140
aF65
aF26
aF130
aF42.600000000000001
aF0.43099999999999999
aF24
aS'1'
tp491
a((lp492
F8
aF197
aF74
aF0
aF0
aF25.899999999999999
aF1.1910000000000001
aF39
aS'1'
tp493
a((lp494
F0
aF109
aF88
aF30
aF0
aF32.5
aF0.85499999999999998
aF38
aS'1'
tp495
a((lp496
F11
aF111
aF84
aF40
aF0
aF46.799999999999997
aF0.92500000000000004
aF45
aS'1'
tp497
a((lp498
F4
aF146
aF92
aF0
aF0
aF31.199999999999999
aF0.53900000000000003
aF61
aS'1'
tp499
a((lp500
F3
aF84
aF72
aF32
aF0
aF37.200000000000003
aF0.26700000000000002
aF28
aS'0'
tp501
a((lp502
F2
aF100
aF70
aF52
aF57
aF40.5
aF0.67700000000000005
aF25
aS'0'
tp503
a((lp504
F10
aF179
aF70
aF0
aF0
aF35.100000000000001
aF0.20000000000000001
aF37
aS'0'
tp505
a((lp506
F6.2999999999999998
aF2.7000000000000002
aF4.9000000000000004
aF1.8
aS'3'
tp507
a((lp508
F0
aF134
aF58
aF20
aF291
aF26.399999999999999
aF0.35199999999999998
aF21
aS'0'
tp509
a((lp510
F1
aF91
aF64
aF24
aF0
aF29.199999999999999
aF0.192
aF21
aS'0'
tp511
a((lp512
F0
aF188
aF82
aF14
aF185
aF32
aF0.68200000000000005
aF22
aS'1'
tp513
a((lp514
F2
aF197
aF70
aF99
aF0
aF34.700000000000003
aF0.57499999999999996
aF62
aS'1'
tp515
a((lp516
F3
aF103
aF72
aF30
aF152
aF27.600000000000001
aF0.72999999999999998
aF27
aS'0'
tp517
a((lp518
F4
aF184
aF78
aF39
aF277
aF37
aF0.26400000000000001
aF31
aS'1'
tp519
a((lp520
F4
aF173
aF70
aF14
aF168
aF29.699999999999999
aF0.36099999999999999
aF33
aS'1'
tp521
a((lp522
F1
aF97
aF64
aF19
aF82
aF18.199999999999999
aF0.29899999999999999
aF21
aS'0'
tp523
a((lp524
F1
aF89
aF24
aF19
aF25
aF27.800000000000001
aF0.55900000000000005
aF21
aS'0'
tp525
a((lp526
F7
aF133
aF88
aF15
aF155
aF32.399999999999999
aF0.26200000000000001
aF37
aS'0'
tp527
a((lp528
F2
aF124
aF68
aF28
aF205
aF32.899999999999999
aF0.875
aF30
aS'1'
tp529
a((lp530
F4.4000000000000004
aF2.8999999999999999
aF1.3999999999999999
aF0.20000000000000001
aS'1'
tp531
a((lp532
F6.2999999999999998
aF2.5
aF5
aF1.8999999999999999
aS'3'
tp533
a((lp534
F11
aF143
aF94
aF33
aF146
aF36.600000000000001
aF0.254
aF51
aS'1'
tp535
a((lp536
F7
aF124
aF70
aF33
aF215
aF25.5
aF0.161
aF37
aS'0'
tp537
a((lp538
F10
aF94
aF72
aF18
aF0
aF23.100000000000001
aF0.59499999999999997
aF56
aS'0'
tp539
a((lp540
F2
aF128
aF78
aF37
aF182
aF43.299999999999997
aF1.224
aF31
aS'1'
tp541
a((lp542
F5.4000000000000004
aF3.3999999999999999
aF1.7
aF0.20000000000000001
aS'1'
tp543
a((lp544
F3
aF111
aF62
aF0
aF0
aF22.600000000000001
aF0.14199999999999999
aF21
aS'0'
tp545
a((lp546
F5
aF3.6000000000000001
aF1.3999999999999999
aF0.20000000000000001
aS'1'
tp547
a((lp548
F5.0999999999999996
aF3.7000000000000002
aF1.5
aF0.40000000000000002
aS'1'
tp549
a((lp550
F3
aF129
aF92
aF49
aF155
aF36.399999999999999
aF0.96799999999999997
aF32
aS'1'
tp551
a((lp552
F0
aF146
aF70
aF0
aF0
aF37.899999999999999
aF0.33400000000000002
aF28
aS'1'
tp553
a((lp554
F0
aF181
aF88
aF44
aF510
aF43.299999999999997
aF0.222
aF26
aS'1'
tp555
a((lp556
F4
aF90
aF0
aF0
aF0
aF28
aF0.60999999999999999
aF31
aS'0'
tp557
a((lp558
F6
aF3
aF4.7999999999999998
aF1.8
aS'3'
tp559
a((lp560
F0
aF162
aF76
aF36
aF0
aF49.600000000000001
aF0.36399999999999999
aF26
aS'1'
tp561
a((lp562
F4
aF129
aF86
aF20
aF270
aF35.100000000000001
aF0.23100000000000001
aF23
aS'0'
tp563
a((lp564
F3
aF139
aF54
aF0
aF0
aF25.600000000000001
aF0.40200000000000002
aF22
aS'1'
tp565
a((lp566
F2
aF129
aF84
aF0
aF0
aF28
aF0.28399999999999997
aF27
aS'0'
tp567
a((lp568
F13
aF153
aF88
aF37
aF140
aF40.600000000000001
aF1.1739999999999999
aF39
aS'0'
tp569
a((lp570
F5.4000000000000004
aF3
aF4.5
aF1.5
aS'2'
tp571
a((lp572
F3
aF83
aF58
aF31
aF18
aF34.299999999999997
aF0.33600000000000002
aF25
aS'0'
tp573
a((lp574
F9
aF134
aF74
aF33
aF60
aF25.899999999999999
aF0.46000000000000002
aF81
aS'0'
tp575
a((lp576
F2
aF100
aF54
aF28
aF105
aF37.799999999999997
aF0.498
aF24
aS'0'
tp577
a((lp578
F0
aF162
aF76
aF56
aF100
aF53.200000000000003
aF0.75900000000000001
aF25
aS'1'
tp579
a((lp580
F5.9000000000000004
aF3
aF4.2000000000000002
aF1.5
aS'2'
tp581
a((lp582
F0
aF165
aF76
aF43
aF255
aF47.899999999999999
aF0.25900000000000001
aF26
aS'0'
tp583
a((lp584
F0
aF73
aF0
aF0
aF0
aF21.100000000000001
aF0.34200000000000003
aF25
aS'0'
tp585
a((lp586
F11
aF85
aF74
aF0
aF0
aF30.100000000000001
aF0.29999999999999999
aF35
aS'0'
tp587
a((lp588
F1
aF120
aF80
aF48
aF200
aF38.899999999999999
aF1.1619999999999999
aF41
aS'0'
tp589
a((lp590
F7
aF147
aF76
aF0
aF0
aF39.399999999999999
aF0.25700000000000001
aF43
aS'1'
tp591
a((lp592
F0
aF86
aF68
aF32
aF0
aF35.799999999999997
aF0.23799999999999999
aF25
aS'0'
tp593
a((lp594
F0
aF104
aF64
aF23
aF116
aF27.800000000000001
aF0.45400000000000001
aF23
aS'0'
tp595
a((lp596
F2
aF102
aF86
aF36
aF120
aF45.5
aF0.127
aF23
aS'1'
tp597
a((lp598
F6
aF85
aF78
aF0
aF0
aF31.199999999999999
aF0.38200000000000001
aF42
aS'0'
tp599
a((lp600
F0
aF147
aF85
aF54
aF0
aF42.799999999999997
aF0.375
aF24
aS'0'
tp601
a((lp602
F6
aF195
aF70
aF0
aF0
aF30.899999999999999
aF0.32800000000000001
aF31
aS'1'
tp603
a((lp604
F1
aF136
aF74
aF50
aF204
aF37.399999999999999
aF0.39900000000000002
aF24
aS'0'
tp605
a((lp606
F3
aF187
aF70
aF22
aF200
aF36.399999999999999
aF0.40799999999999997
aF36
aS'1'
tp607
a((lp608
F1
aF93
aF56
aF11
aF0
aF22.5
aF0.41699999999999998
aF22
aS'0'
tp609
a((lp610
F5.0999999999999996
aF3.2999999999999998
aF1.7
aF0.5
aS'1'
tp611
a((lp612
F1
aF128
aF82
aF17
aF183
aF27.5
aF0.115
aF22
aS'0'
tp613
a((lp614
F0
aF131
aF0
aF0
aF0
aF43.200000000000003
aF0.27000000000000002
aF26
aS'1'
tp615
a((lp616
F4
aF97
aF60
aF23
aF0
aF28.199999999999999
aF0.443
aF22
aS'0'
tp617
a((lp618
F13
aF104
aF72
aF0
aF0
aF31.199999999999999
aF0.46500000000000002
aF38
aS'1'
tp619
a((lp620
F4
aF110
aF92
aF0
aF0
aF37.600000000000001
aF0.191
aF30
aS'0'
tp621
a((lp622
F1
aF128
aF48
aF45
aF194
aF40.5
aF0.61299999999999999
aF24
aS'1'
tp623
a((lp624
F2
aF111
aF60
aF0
aF0
aF26.199999999999999
aF0.34300000000000003
aF23
aS'0'
tp625
a((lp626
F2
aF112
aF75
aF32
aF0
aF35.700000000000003
aF0.14799999999999999
aF21
aS'0'
tp627
a((lp628
F5.7000000000000002
aF2.7999999999999998
aF4.0999999999999996
aF1.3
aS'2'
tp629
a((lp630
F4
aF132
aF0
aF0
aF0
aF32.899999999999999
aF0.30199999999999999
aF23
aS'1'
tp631
a((lp632
F2
aF93
aF64
aF32
aF160
aF38
aF0.67400000000000004
aF23
aS'1'
tp633
a((lp634
F6
aF117
aF96
aF0
aF0
aF28.699999999999999
aF0.157
aF30
aS'0'
tp635
a((lp636
F6
aF2.8999999999999999
aF4.5
aF1.5
aS'2'
tp637
a((lp638
F7
aF102
aF74
aF40
aF105
aF37.200000000000003
aF0.20399999999999999
aF45
aS'0'
tp639
a((lp640
F1
aF119
aF86
aF39
aF220
aF45.600000000000001
aF0.80800000000000005
aF29
aS'1'
tp641
a((lp642
F5.4000000000000004
aF3.8999999999999999
aF1.7
aF0.40000000000000002
aS'1'
tp643
a((lp644
F11
aF120
aF80
aF37
aF150
aF42.299999999999997
aF0.78500000000000003
aF48
aS'1'
tp645
a((lp646
F6
aF104
aF74
aF18
aF156
aF29.899999999999999
aF0.72199999999999998
aF41
aS'1'
tp647
a((lp648
F2
aF83
aF65
aF28
aF66
aF36.799999999999997
aF0.629
aF24
aS'0'
tp649
a((lp650
F1
aF122
aF64
aF32
aF156
aF35.100000000000001
aF0.69199999999999995
aF30
aS'1'
tp651
a((lp652
F7
aF136
aF74
aF26
aF135
aF26
aF0.64700000000000002
aF51
aS'0'
tp653
a((lp654
F11
aF155
aF76
aF28
aF150
aF33.299999999999997
aF1.353
aF51
aS'1'
tp655
a((lp656
F4.9000000000000004
aF3.1000000000000001
aF1.5
aF0.10000000000000001
aS'1'
tp657
a((lp658
F5.5
aF2.2999999999999998
aF4
aF1.3
aS'2'
tp659
a((lp660
F5
aF124
aF74
aF0
aF0
aF34
aF0.22
aF38
aS'1'
tp661
a((lp662
F0
aF102
aF75
aF23
aF0
aF0
aF0.57199999999999995
aF21
aS'0'
tp663
a((lp664
F1
aF164
aF82
aF43
aF67
aF32.799999999999997
aF0.34100000000000003
aF50
aS'0'
tp665
a((lp666
F5
aF158
aF70
aF0
aF0
aF29.800000000000001
aF0.20699999999999999
aF63
aS'0'
tp667
a((lp668
F3
aF124
aF80
aF33
aF130
aF33.200000000000003
aF0.30499999999999999
aF26
aS'0'
tp669
a((lp670
F0
aF107
aF60
aF25
aF0
aF26.399999999999999
aF0.13300000000000001
aF23
aS'0'
tp671
a((lp672
F5.0999999999999996
aF3.7999999999999998
aF1.8999999999999999
aF0.40000000000000002
aS'1'
tp673
a((lp674
F2
aF106
aF56
aF27
aF165
aF29
aF0.42599999999999999
aF22
aS'0'
tp675
a((lp676
F2
aF197
aF70
aF45
aF543
aF30.5
aF0.158
aF53
aS'1'
tp677
a((lp678
F17
aF163
aF72
aF41
aF114
aF40.899999999999999
aF0.81699999999999995
aF47
aS'1'
tp679
a((lp680
F3
aF150
aF76
aF0
aF0
aF21
aF0.20699999999999999
aF37
aS'0'
tp681
a((lp682
F8
aF167
aF106
aF46
aF231
aF37.600000000000001
aF0.16500000000000001
aF43
aS'1'
tp683
a((lp684
F1
aF88
aF30
aF42
aF99
aF55
aF0.496
aF26
aS'1'
tp685
a((lp686
F2
aF99
aF60
aF17
aF160
aF36.600000000000001
aF0.45300000000000001
aF21
aS'0'
tp687
a((lp688
F1
aF143
aF84
aF23
aF310
aF42.399999999999999
aF1.0760000000000001
aF22
aS'0'
tp689
a((lp690
F6.2000000000000002
aF3.3999999999999999
aF5.4000000000000004
aF2.2999999999999998
aS'3'
tp691
a((lp692
F5
aF109
aF62
aF41
aF129
aF35.799999999999997
aF0.51400000000000001
aF25
aS'1'
tp693
a((lp694
F1
aF111
aF62
aF13
aF182
aF24
aF0.13800000000000001
aF23
aS'0'
tp695
a((lp696
F6.7000000000000002
aF3.2999999999999998
aF5.7000000000000002
aF2.1000000000000001
aS'3'
tp697
a((lp698
F5
aF85
aF74
aF22
aF0
aF29
aF1.224
aF32
aS'1'
tp699
a((lp700
F13
aF126
aF90
aF0
aF0
aF43.399999999999999
aF0.58299999999999996
aF42
aS'1'
tp701
a((lp702
F2
aF112
aF68
aF22
aF94
aF34.100000000000001
aF0.315
aF26
aS'0'
tp703
a((lp704
F5
aF116
aF74
aF0
aF0
aF25.600000000000001
aF0.20100000000000001
aF30
aS'0'
tp705
a((lp706
F2
aF56
aF56
aF28
aF45
aF24.199999999999999
aF0.33200000000000002
aF22
aS'0'
tp707
a((lp708
F5
aF155
aF84
aF44
aF545
aF38.700000000000003
aF0.61899999999999999
aF34
aS'0'
tp709
a((lp710
F1
aF180
aF0
aF0
aF0
aF43.299999999999997
aF0.28199999999999997
aF41
aS'1'
tp711
a((lp712
F5
aF126
aF78
aF27
aF22
aF29.600000000000001
aF0.439
aF40
aS'0'
tp713
a((lp714
F2
aF90
aF60
aF0
aF0
aF23.5
aF0.191
aF25
aS'0'
tp715
a((lp716
F0
aF119
aF0
aF0
aF0
aF32.399999999999999
aF0.14099999999999999
aF24
aS'1'
tp717
a((lp718
F8
aF194
aF80
aF0
aF0
aF26.100000000000001
aF0.55100000000000005
aF67
aS'0'
tp719
a((lp720
F3
aF193
aF70
aF31
aF0
aF34.899999999999999
aF0.24099999999999999
aF25
aS'1'
tp721
a((lp722
F4
aF76
aF62
aF0
aF0
aF34
aF0.39100000000000001
aF25
aS'0'
tp723
a((lp724
F5
aF78
aF48
aF0
aF0
aF33.700000000000003
aF0.65400000000000003
aF25
aS'0'
tp725
a((lp726
F0
aF161
aF50
aF0
aF0
aF21.899999999999999
aF0.254
aF65
aS'0'
tp727
a((lp728
F5
aF0
aF80
aF32
aF0
aF41
aF0.34599999999999997
aF37
aS'1'
tp729
a((lp730
F6
aF144
aF72
aF27
aF228
aF33.899999999999999
aF0.255
aF40
aS'0'
tp731
a((lp732
F3
aF74
aF68
aF28
aF45
aF29.699999999999999
aF0.29299999999999998
aF23
aS'0'
tp733
a((lp734
F5
aF3.2000000000000002
aF1.2
aF0.20000000000000001
aS'1'
tp735
a((lp736
F5.5999999999999996
aF2.7999999999999998
aF4.9000000000000004
aF2
aS'3'
tp737
a((lp738
F5.5
aF2.3999999999999999
aF3.7000000000000002
aF1
aS'2'
tp739
a((lp740
F0
aF145
aF0
aF0
aF0
aF44.200000000000003
aF0.63
aF31
aS'1'
tp741
a((lp742
F1
aF87
aF60
aF37
aF75
aF37.200000000000003
aF0.50900000000000001
aF22
aS'0'
tp743
a((lp744
F5
aF77
aF82
aF41
aF42
aF35.799999999999997
aF0.156
aF35
aS'0'
tp745
a((lp746
F5.9000000000000004
aF3.2000000000000002
aF4.7999999999999998
aF1.8
aS'2'
tp747
a((lp748
F5
aF147
aF75
aF0
aF0
aF29.899999999999999
aF0.434
aF28
aS'0'
tp749
a((lp750
F5
aF139
aF80
aF35
aF160
aF31.600000000000001
aF0.36099999999999999
aF25
aS'1'
tp751
a((lp752
F10
aF168
aF74
aF0
aF0
aF38
aF0.53700000000000003
aF34
aS'1'
tp753
a((lp754
F5.5999999999999996
aF2.8999999999999999
aF3.6000000000000001
aF1.3
aS'2'
tp755
a((lp756
F0
aF138
aF60
aF35
aF167
aF34.600000000000001
aF0.53400000000000003
aF21
aS'1'
tp757
a((lp758
F0
aF125
aF96
aF0
aF0
aF22.5
aF0.26200000000000001
aF21
aS'0'
tp759
a((lp760
F7
aF142
aF60
aF33
aF190
aF28.800000000000001
aF0.68700000000000006
aF61
aS'0'
tp761
a((lp762
F4
aF151
aF90
aF38
aF0
aF29.699999999999999
aF0.29399999999999998
aF36
aS'0'
tp763
a((lp764
F0
aF135
aF94
aF46
aF145
aF40.600000000000001
aF0.28399999999999997
aF26
aS'0'
tp765
a((lp766
F2
aF90
aF70
aF17
aF0
aF27.300000000000001
aF0.085000000000000006
aF22
aS'0'
tp767
a((lp768
F0
aF93
aF60
aF0
aF0
aF35.299999999999997
aF0.26300000000000001
aF25
aS'0'
tp769
a((lp770
F0
aF180
aF66
aF39
aF0
aF42
aF1.893
aF25
aS'1'
tp771
a((lp772
F2
aF99
aF52
aF15
aF94
aF24.600000000000001
aF0.63700000000000001
aF21
aS'0'
tp773
a((lp774
F3
aF125
aF58
aF0
aF0
aF31.600000000000001
aF0.151
aF24
aS'0'
tp775
a((lp776
F7
aF97
aF76
aF32
aF91
aF40.899999999999999
aF0.871
aF32
aS'1'
tp777
a((lp778
F5
aF158
aF84
aF41
aF210
aF39.399999999999999
aF0.39500000000000002
aF29
aS'1'
tp779
a((lp780
F4
aF197
aF70
aF39
aF744
aF36.700000000000003
aF2.3290000000000002
aF31
aS'0'
tp781
a((lp782
F1
aF103
aF80
aF11
aF82
aF19.399999999999999
aF0.49099999999999999
aF22
aS'0'
tp783
a((lp784
F5
aF162
aF104
aF0
aF0
aF37.700000000000003
aF0.151
aF52
aS'1'
tp785
a((lp786
F5.0999999999999996
aF3.5
aF1.3999999999999999
aF0.20000000000000001
aS'1'
tp787
a((lp788
F3
aF128
aF72
aF25
aF190
aF32.399999999999999
aF0.54900000000000004
aF27
aS'1'
tp789
a((lp790
F2
aF127
aF58
aF24
aF275
aF27.699999999999999
aF1.6000000000000001
aF25
aS'0'
tp791
a((lp792
F12
aF151
aF70
aF40
aF271
aF41.799999999999997
aF0.74199999999999999
aF38
aS'1'
tp793
a((lp794
F1
aF133
aF102
aF28
aF140
aF32.799999999999997
aF0.23400000000000001
aF45
aS'1'
tp795
a((lp796
F4
aF120
aF68
aF0
aF0
aF29.600000000000001
aF0.70899999999999996
aF34
aS'0'
tp797
a((lp798
F9
aF184
aF85
aF15
aF0
aF30
aF1.2130000000000001
aF49
aS'1'
tp799
a((lp800
F7
aF159
aF64
aF0
aF0
aF27.399999999999999
aF0.29399999999999998
aF40
aS'0'
tp801
a((lp802
F0
aF98
aF82
aF15
aF84
aF25.199999999999999
aF0.29899999999999999
aF22
aS'0'
tp803
a((lp804
F9
aF123
aF70
aF44
aF94
aF33.100000000000001
aF0.374
aF40
aS'0'
tp805
a((lp806
F1
aF106
aF70
aF28
aF135
aF34.200000000000003
aF0.14199999999999999
aF22
aS'0'
tp807
a((lp808
F1
aF87
aF78
aF27
aF32
aF34.600000000000001
aF0.10100000000000001
aF22
aS'0'
tp809
a((lp810
F6.7000000000000002
aF3.1000000000000001
aF4.4000000000000004
aF1.3999999999999999
aS'2'
tp811
a((lp812
F2
aF98
aF60
aF17
aF120
aF34.700000000000003
aF0.19800000000000001
aF22
aS'0'
tp813
a((lp814
F4
aF125
aF80
aF0
aF0
aF32.299999999999997
aF0.53600000000000003
aF27
aS'1'
tp815
a((lp816
F3
aF99
aF62
aF19
aF74
aF21.800000000000001
aF0.27900000000000003
aF26
aS'0'
tp817
a((lp818
F2
aF155
aF74
aF17
aF96
aF26.600000000000001
aF0.433
aF27
aS'1'
tp819
a((lp820
F5
aF3.5
aF1.3
aF0.29999999999999999
aS'1'
tp821
a((lp822
F10
aF129
aF62
aF36
aF0
aF41.200000000000003
aF0.441
aF38
aS'1'
tp823
a((lp824
F1
aF115
aF70
aF30
aF96
aF34.600000000000001
aF0.52900000000000003
aF32
aS'1'
tp825
a((lp826
F0
aF78
aF88
aF29
aF40
aF36.899999999999999
aF0.434
aF21
aS'0'
tp827
a((lp828
F1
aF79
aF75
aF30
aF0
aF32
aF0.39600000000000002
aF22
aS'0'
tp829
a((lp830
F6
aF103
aF66
aF0
aF0
aF24.300000000000001
aF0.249
aF29
aS'0'
tp831
a((lp832
F1
aF140
aF74
aF26
aF180
aF24.100000000000001
aF0.82799999999999996
aF23
aS'0'
tp833
a((lp834
F5
aF112
aF66
aF0
aF0
aF37.799999999999997
aF0.26100000000000001
aF41
aS'1'
tp835
a((lp836
F1
aF193
aF50
aF16
aF375
aF25.899999999999999
aF0.65500000000000003
aF24
aS'0'
tp837
a((lp838
F5
aF2.2999999999999998
aF3.2999999999999998
aF1
aS'2'
tp839
a((lp840
F5
aF95
aF72
aF33
aF0
aF37.700000000000003
aF0.37
aF27
aS'0'
tp841
a((lp842
F7.2999999999999998
aF2.8999999999999999
aF6.2999999999999998
aF1.8
aS'3'
tp843
a((lp844
F2
aF174
aF88
aF37
aF120
aF44.5
aF0.64600000000000002
aF24
aS'1'
tp845
a((lp846
F2
aF120
aF54
aF0
aF0
aF26.800000000000001
aF0.45500000000000002
aF27
aS'0'
tp847
a((lp848
F0
aF137
aF70
aF38
aF0
aF33.200000000000003
aF0.17000000000000001
aF22
aS'0'
tp849
a((lp850
F5
aF106
aF82
aF30
aF0
aF39.5
aF0.28599999999999998
aF38
aS'0'
tp851
a((lp852
F0
aF129
aF110
aF46
aF130
aF67.099999999999994
aF0.31900000000000001
aF26
aS'1'
tp853
a((lp854
F1
aF119
aF88
aF41
aF170
aF45.299999999999997
aF0.50700000000000001
aF26
aS'0'
tp855
a((lp856
F5
aF117
aF92
aF0
aF0
aF34.100000000000001
aF0.33700000000000002
aF38
aS'0'
tp857
a((lp858
F2
aF87
aF0
aF23
aF0
aF28.899999999999999
aF0.77300000000000002
aF25
aS'0'
tp859
a((lp860
F5
aF123
aF74
aF40
aF77
aF34.100000000000001
aF0.26900000000000002
aF28
aS'0'
tp861
a((lp862
F0
aF99
aF0
aF0
aF0
aF25
aF0.253
aF22
aS'0'
tp863
a((lp864
F5
aF144
aF82
aF26
aF285
aF32
aF0.45200000000000001
aF58
aS'1'
tp865
a((lp866
F7
aF103
aF66
aF32
aF0
aF39.100000000000001
aF0.34399999999999997
aF31
aS'1'
tp867
a((lp868
F1
aF97
aF70
aF40
aF0
aF38.100000000000001
aF0.218
aF30
aS'0'
tp869
a((lp870
F6.5999999999999996
aF3
aF4.4000000000000004
aF1.3999999999999999
aS'2'
tp871
a((lp872
F6.2000000000000002
aF2.2000000000000002
aF4.5
aF1.5
aS'2'
tp873
a((lp874
F4
aF123
aF62
aF0
aF0
aF32
aF0.22600000000000001
aF35
aS'1'
tp875
a((lp876
F6
aF125
aF76
aF0
aF0
aF33.799999999999997
aF0.121
aF54
aS'1'
tp877
a((lp878
F4.7999999999999998
aF3.3999999999999999
aF1.6000000000000001
aF0.20000000000000001
aS'1'
tp879
a((lp880
F6.0999999999999996
aF3
aF4.5999999999999996
aF1.3999999999999999
aS'2'
tp881
a((lp882
F4.2999999999999998
aF3
aF1.1000000000000001
aF0.10000000000000001
aS'1'
tp883
a((lp884
F2
aF146
aF76
aF35
aF194
aF38.200000000000003
aF0.32900000000000001
aF29
aS'0'
tp885
a((lp886
F1
aF95
aF74
aF21
aF73
aF25.899999999999999
aF0.67300000000000004
aF36
aS'0'
tp887
a((lp888
F3
aF173
aF84
aF33
aF474
aF35.700000000000003
aF0.25800000000000001
aF22
aS'1'
tp889
a((lp890
F2
aF144
aF58
aF33
aF135
aF31.600000000000001
aF0.42199999999999999
aF25
aS'1'
tp891
a((lp892
F8
aF120
aF0
aF0
aF0
aF30
aF0.183
aF38
aS'1'
tp893
a((lp894
F2
aF139
aF75
aF0
aF0
aF25.600000000000001
aF0.16700000000000001
aF29
aS'0'
tp895
a((lp896
F1
aF173
aF74
aF0
aF0
aF36.799999999999997
aF0.087999999999999995
aF38
aS'1'
tp897
a((lp898
F10
aF115
aF0
aF0
aF0
aF0
aF0.26100000000000001
aF30
aS'1'
tp899
a((lp900
F5
aF114
aF74
aF0
aF0
aF24.899999999999999
aF0.74399999999999999
aF57
aS'0'
tp901
a((lp902
F8
aF99
aF84
aF0
aF0
aF35.399999999999999
aF0.38800000000000001
aF50
aS'0'
tp903
a((lp904
F6
aF102
aF90
aF39
aF0
aF35.700000000000003
aF0.67400000000000004
aF28
aS'0'
tp905
a((lp906
F7
aF181
aF84
aF21
aF192
aF35.899999999999999
aF0.58599999999999997
aF51
aS'1'
tp907
a((lp908
F6
aF105
aF70
aF32
aF68
aF30.800000000000001
aF0.122
aF37
aS'0'
tp909
a((lp910
F6.7000000000000002
aF3.2999999999999998
aF5.7000000000000002
aF2.5
aS'3'
tp911
a((lp912
F1
aF89
aF76
aF34
aF37
aF31.199999999999999
aF0.192
aF23
aS'0'
tp913
a((lp914
F6.7999999999999998
aF3.2000000000000002
aF5.9000000000000004
aF2.2999999999999998
aS'3'
tp915
a((lp916
F5
aF3.5
aF1.6000000000000001
aF0.59999999999999998
aS'1'
tp917
a((lp918
F2
aF100
aF66
aF20
aF90
aF32.899999999999999
aF0.86699999999999999
aF28
aS'1'
tp919
a((lp920
F4
aF111
aF72
aF47
aF207
aF37.100000000000001
aF1.3899999999999999
aF56
aS'1'
tp921
a((lp922
F4.5
aF2.2999999999999998
aF1.3
aF0.29999999999999999
aS'1'
tp923
a((lp924
F11
aF103
aF68
aF40
aF0
aF46.200000000000003
aF0.126
aF42
aS'0'
tp925
a((lp926
F5
aF96
aF74
aF18
aF67
aF33.600000000000001
aF0.997
aF43
aS'0'
tp927
a((lp928
F7
aF152
aF88
aF44
aF0
aF50
aF0.33700000000000002
aF36
aS'1'
tp929
a((lp930
F7
aF150
aF66
aF42
aF342
aF34.700000000000003
aF0.71799999999999997
aF42
aS'0'
tp931
a((lp932
F6.4000000000000004
aF2.7000000000000002
aF5.2999999999999998
aF1.8999999999999999
aS'3'
tp933
a((lp934
F4
aF99
aF68
aF38
aF0
aF32.799999999999997
aF0.14499999999999999
aF33
aS'0'
tp935
a((lp936
F10
aF122
aF78
aF31
aF0
aF27.600000000000001
aF0.51200000000000001
aF45
aS'0'
tp937
a((lp938
F6.9000000000000004
aF3.2000000000000002
aF5.7000000000000002
aF2.2999999999999998
aS'3'
tp939
a((lp940
F5
aF137
aF108
aF0
aF0
aF48.799999999999997
aF0.22700000000000001
aF37
aS'1'
tp941
a((lp942
F9
aF164
aF78
aF0
aF0
aF32.799999999999997
aF0.14799999999999999
aF45
aS'1'
tp943
a((lp944
F4
aF99
aF72
aF17
aF0
aF25.600000000000001
aF0.29399999999999998
aF28
aS'0'
tp945
a((lp946
F1
aF146
aF56
aF0
aF0
aF29.699999999999999
aF0.56399999999999995
aF29
aS'0'
tp947
a((lp948
F1
aF0
aF74
aF20
aF23
aF27.699999999999999
aF0.29899999999999999
aF21
aS'0'
tp949
a((lp950
F2
aF90
aF80
aF14
aF55
aF24.399999999999999
aF0.249
aF24
aS'0'
tp951
a((lp952
F1
aF97
aF66
aF15
aF140
aF23.199999999999999
aF0.48699999999999999
aF22
aS'0'
tp953
a((lp954
F10
aF162
aF84
aF0
aF0
aF27.699999999999999
aF0.182
aF54
aS'0'
tp955
a((lp956
F4.4000000000000004
aF3.2000000000000002
aF1.3
aF0.20000000000000001
aS'1'
tp957
a((lp958
F4
aF137
aF84
aF0
aF0
aF31.199999999999999
aF0.252
aF30
aS'0'
tp959
a((lp960
F7
aF109
aF80
aF31
aF0
aF35.899999999999999
aF1.127
aF43
aS'1'
tp961
a((lp962
F1
aF172
aF68
aF49
aF579
aF42.399999999999999
aF0.70199999999999996
aF28
aS'1'
tp963
a((lp964
F6.0999999999999996
aF2.6000000000000001
aF5.5999999999999996
aF1.3999999999999999
aS'3'
tp965
a((lp966
F9
aF156
aF86
aF0
aF0
aF24.800000000000001
aF0.23000000000000001
aF53
aS'1'
tp967
a((lp968
F1
aF100
aF72
aF12
aF70
aF25.300000000000001
aF0.65800000000000003
aF28
aS'0'
tp969
a((lp970
F3
aF121
aF52
aF0
aF0
aF36
aF0.127
aF25
aS'1'
tp971
a((lp972
F0
aF177
aF60
aF29
aF478
aF34.600000000000001
aF1.0720000000000001
aF21
aS'1'
tp973
a((lp974
F7.4000000000000004
aF2.7999999999999998
aF6.0999999999999996
aF1.8999999999999999
aS'3'
tp975
a((lp976
F5.5999999999999996
aF2.5
aF3.8999999999999999
aF1.1000000000000001
aS'2'
tp977
a((lp978
F4
aF99
aF76
aF15
aF51
aF23.199999999999999
aF0.223
aF21
aS'0'
tp979
a((lp980
F6.0999999999999996
aF3
aF4.9000000000000004
aF1.8
aS'3'
tp981
a((lp982
F4
aF117
aF64
aF27
aF120
aF33.200000000000003
aF0.23000000000000001
aF24
aS'0'
tp983
a((lp984
F4
aF156
aF75
aF0
aF0
aF48.299999999999997
aF0.23799999999999999
aF32
aS'1'
tp985
a((lp986
F10
aF68
aF106
aF23
aF49
aF35.5
aF0.28499999999999998
aF47
aS'0'
tp987
a((lp988
F6.7000000000000002
aF3.1000000000000001
aF5.5999999999999996
aF2.3999999999999999
aS'3'
tp989
a((lp990
F2
aF96
aF68
aF13
aF49
aF21.100000000000001
aF0.64700000000000002
aF26
aS'0'
tp991
a((lp992
F3
aF171
aF72
aF33
aF135
aF33.299999999999997
aF0.19900000000000001
aF24
aS'1'
tp993
a((lp994
F1
aF116
aF78
aF29
aF180
aF36.100000000000001
aF0.496
aF25
aS'0'
tp995
a((lp996
F3
aF162
aF52
aF38
aF0
aF37.200000000000003
aF0.65200000000000002
aF24
aS'1'
tp997
a((lp998
F3
aF148
aF66
aF25
aF0
aF32.5
aF0.25600000000000001
aF22
aS'0'
tp999
a((lp1000
F2
aF84
aF50
aF23
aF76
aF30.399999999999999
aF0.96799999999999997
aF21
aS'0'
tp1001
a((lp1002
F4.4000000000000004
aF3
aF1.3
aF0.20000000000000001
aS'1'
tp1003
a((lp1004
F0
aF93
aF60
aF25
aF92
aF28.699999999999999
aF0.53200000000000003
aF22
aS'0'
tp1005
a((lp1006
F0
aF94
aF0
aF0
aF0
aF0
aF0.25600000000000001
aF25
aS'0'
tp1007
a((lp1008
F12
aF106
aF80
aF0
aF0
aF23.600000000000001
aF0.13700000000000001
aF44
aS'0'
tp1009
a((lp1010
F4
aF145
aF82
aF18
aF0
aF32.5
aF0.23499999999999999
aF70
aS'1'
tp1011
a((lp1012
F6
aF151
aF62
aF31
aF120
aF35.5
aF0.69199999999999995
aF28
aS'0'
tp1013
a((lp1014
F4.9000000000000004
aF2.5
aF4.5
aF1.7
aS'3'
tp1015
a((lp1016
F5.7999999999999998
aF4
aF1.2
aF0.20000000000000001
aS'1'
tp1017
a((lp1018
F1
aF105
aF58
aF0
aF0
aF24.300000000000001
aF0.187
aF21
aS'0'
tp1019
a((lp1020
F4
aF109
aF64
aF44
aF99
aF34.799999999999997
aF0.90500000000000003
aF26
aS'1'
tp1021
a((lp1022
F7
aF129
aF68
aF49
aF125
aF38.5
aF0.439
aF43
aS'1'
tp1023
a((lp1024
F8
aF143
aF66
aF0
aF0
aF34.899999999999999
aF0.129
aF41
aS'1'
tp1025
a((lp1026
F4
aF118
aF70
aF0
aF0
aF44.5
aF0.90400000000000003
aF26
aS'0'
tp1027
a((lp1028
F5.7000000000000002
aF3.7999999999999998
aF1.7
aF0.29999999999999999
aS'1'
tp1029
a((lp1030
F7
aF136
aF90
aF0
aF0
aF29.899999999999999
aF0.20999999999999999
aF50
aS'0'
tp1031
a((lp1032
F6.4000000000000004
aF3.2000000000000002
aF4.5
aF1.5
aS'2'
tp1033
a((lp1034
F7.0999999999999996
aF3
aF5.9000000000000004
aF2.1000000000000001
aS'3'
tp1035
a((lp1036
F0
aF102
aF52
aF0
aF0
aF25.100000000000001
aF0.078
aF21
aS'0'
tp1037
a((lp1038
F5
aF121
aF72
aF23
aF112
aF26.199999999999999
aF0.245
aF30
aS'0'
tp1039
a((lp1040
F0
aF113
aF80
aF16
aF0
aF31
aF0.874
aF21
aS'0'
tp1041
a((lp1042
F2
aF85
aF65
aF0
aF0
aF39.600000000000001
aF0.93000000000000005
aF27
aS'0'
tp1043
a((lp1044
F1
aF122
aF90
aF51
aF220
aF49.700000000000003
aF0.32500000000000001
aF31
aS'1'
tp1045
a((lp1046
F4.9000000000000004
aF3
aF1.3999999999999999
aF0.20000000000000001
aS'1'
tp1047
a((lp1048
F5.0999999999999996
aF2.5
aF3
aF1.1000000000000001
aS'2'
tp1049
a((lp1050
F4
aF154
aF62
aF31
aF284
aF32.799999999999997
aF0.23699999999999999
aF23
aS'0'
tp1051
a((lp1052
F6
aF114
aF88
aF0
aF0
aF27.800000000000001
aF0.247
aF66
aS'0'
tp1053
a((lp1054
F9
aF165
aF88
aF0
aF0
aF30.399999999999999
aF0.30199999999999999
aF49
aS'1'
tp1055
a((lp1056
F10
aF101
aF76
aF48
aF180
aF32.899999999999999
aF0.17100000000000001
aF63
aS'0'
tp1057
a((lp1058
F2
aF108
aF62
aF10
aF278
aF25.300000000000001
aF0.88100000000000001
aF22
aS'0'
tp1059
a((lp1060
F13
aF158
aF114
aF0
aF0
aF42.299999999999997
aF0.25700000000000001
aF44
aS'1'
tp1061
a((lp1062
F6.2999999999999998
aF3.2999999999999998
aF4.7000000000000002
aF1.6000000000000001
aS'2'
tp1063
a((lp1064
F4.5999999999999996
aF3.6000000000000001
aF1
aF0.20000000000000001
aS'1'
tp1065
a((lp1066
F0
aF114
aF80
aF34
aF285
aF44.200000000000003
aF0.16700000000000001
aF27
aS'0'
tp1067
a((lp1068
F1
aF82
aF64
aF13
aF95
aF21.199999999999999
aF0.41499999999999998
aF23
aS'0'
tp1069
a((lp1070
F0
aF126
aF84
aF29
aF215
aF30.699999999999999
aF0.52000000000000002
aF24
aS'0'
tp1071
a((lp1072
F7
aF114
aF66
aF0
aF0
aF32.799999999999997
aF0.25800000000000001
aF42
aS'1'
tp1073
a((lp1074
F4
aF144
aF58
aF28
aF140
aF29.5
aF0.28699999999999998
aF37
aS'0'
tp1075
a((lp1076
F0
aF93
aF100
aF39
aF72
aF43.399999999999999
aF1.0209999999999999
aF35
aS'0'
tp1077
a((lp1078
F2
aF89
aF90
aF30
aF0
aF33.5
aF0.29199999999999998
aF42
aS'0'
tp1079
a((lp1080
F10
aF75
aF82
aF0
aF0
aF33.299999999999997
aF0.26300000000000001
aF38
aS'0'
tp1081
a((lp1082
F5.2000000000000002
aF3.3999999999999999
aF1.3999999999999999
aF0.20000000000000001
aS'1'
tp1083
a((lp1084
F3
aF108
aF62
aF24
aF0
aF26
aF0.223
aF25
aS'0'
tp1085
a((lp1086
F2
aF129
aF74
aF26
aF205
aF33.200000000000003
aF0.59099999999999997
aF25
aS'0'
tp1087
a((lp1088
F10
aF108
aF66
aF0
aF0
aF32.399999999999999
aF0.27200000000000002
aF42
aS'1'
tp1089
a((lp1090
F1
aF189
aF60
aF23
aF846
aF30.100000000000001
aF0.39800000000000002
aF59
aS'1'
tp1091
a((lp1092
F11
aF127
aF106
aF0
aF0
aF39
aF0.19
aF51
aS'0'
tp1093
a((lp1094
F0
aF124
aF56
aF13
aF105
aF21.800000000000001
aF0.45200000000000001
aF21
aS'0'
tp1095
a((lp1096
F5
aF109
aF75
aF26
aF0
aF36
aF0.54600000000000004
aF60
aS'0'
tp1097
a((lp1098
F6.4000000000000004
aF2.7999999999999998
aF5.5999999999999996
aF2.2000000000000002
aS'3'
tp1099
a((lp1100
F6
aF162
aF62
aF0
aF0
aF24.300000000000001
aF0.17799999999999999
aF50
aS'1'
tp1101
a((lp1102
F0
aF105
aF84
aF0
aF0
aF27.899999999999999
aF0.74099999999999999
aF62
aS'1'
tp1103
a((lp1104
F3
aF88
aF58
aF11
aF54
aF24.800000000000001
aF0.26700000000000002
aF22
aS'0'
tp1105
a((lp1106
F2
aF81
aF72
aF15
aF76
aF30.100000000000001
aF0.54700000000000004
aF25
aS'0'
tp1107
a((lp1108
F2
aF112
aF66
aF22
aF0
aF25
aF0.307
aF24
aS'0'
tp1109
a((lp1110
F6
aF3.3999999999999999
aF4.5
aF1.6000000000000001
aS'2'
tp1111
a((lp1112
F0
aF74
aF52
aF10
aF36
aF27.800000000000001
aF0.26900000000000002
aF22
aS'0'
tp1113
a((lp1114
F1
aF85
aF66
aF29
aF0
aF26.600000000000001
aF0.35099999999999998
aF31
aS'0'
tp1115
a((lp1116
F0
aF146
aF82
aF0
aF0
aF40.5
aF1.7809999999999999
aF44
aS'0'
tp1117
a((lp1118
F1
aF163
aF72
aF0
aF0
aF39
aF1.222
aF33
aS'1'
tp1119
a((lp1120
F7
aF107
aF74
aF0
aF0
aF29.600000000000001
aF0.254
aF31
aS'1'
tp1121
a((lp1122
F2
aF105
aF80
aF45
aF191
aF33.700000000000003
aF0.71099999999999997
aF29
aS'1'
tp1123
a((lp1124
F1
aF88
aF62
aF24
aF44
aF29.899999999999999
aF0.42199999999999999
aF23
aS'0'
tp1125
a((lp1126
F11
aF135
aF0
aF0
aF0
aF52.299999999999997
aF0.57799999999999996
aF40
aS'1'
tp1127
a((lp1128
F9
aF171
aF110
aF24
aF240
aF45.399999999999999
aF0.72099999999999997
aF54
aS'1'
tp1129
a((lp1130
F4
aF144
aF82
aF32
aF0
aF38.5
aF0.55400000000000005
aF37
aS'1'
tp1131
a((lp1132
F2
aF74
aF0
aF0
aF0
aF0
aF0.10199999999999999
aF22
aS'0'
tp1133
a((lp1134
F0
aF151
aF90
aF46
aF0
aF42.100000000000001
aF0.371
aF21
aS'1'
tp1135
a((lp1136
F3
aF141
aF0
aF0
aF0
aF30
aF0.76100000000000001
aF27
aS'1'
tp1137
a((lp1138
F1
aF199
aF76
aF43
aF0
aF42.899999999999999
aF1.3939999999999999
aF22
aS'1'
tp1139
a((lp1140
F1
aF99
aF72
aF30
aF18
aF38.600000000000001
aF0.41199999999999998
aF21
aS'0'
tp1141
a((lp1142
F3
aF106
aF54
aF21
aF158
aF30.899999999999999
aF0.29199999999999998
aF24
aS'0'
tp1143
a((lp1144
F0
aF91
aF68
aF32
aF210
aF39.899999999999999
aF0.38100000000000001
aF25
aS'0'
tp1145
a((lp1146
F3
aF106
aF72
aF0
aF0
aF25.800000000000001
aF0.20699999999999999
aF27
aS'0'
tp1147
a((lp1148
F0
aF139
aF62
aF17
aF210
aF22.100000000000001
aF0.20699999999999999
aF21
aS'0'
tp1149
a((lp1150
F7.7000000000000002
aF3.7999999999999998
aF6.7000000000000002
aF2.2000000000000002
aS'3'
tp1151
a((lp1152
F3
aF158
aF64
aF13
aF387
aF31.199999999999999
aF0.29499999999999998
aF24
aS'0'
tp1153
a((lp1154
F10
aF111
aF70
aF27
aF0
aF27.5
aF0.14099999999999999
aF40
aS'1'
tp1155
a((lp1156
F5.5
aF2.5
aF4
aF1.3
aS'2'
tp1157
a((lp1158
F5.4000000000000004
aF3.7000000000000002
aF1.5
aF0.20000000000000001
aS'1'
tp1159
a((lp1160
F2
aF128
aF64
aF42
aF0
aF40
aF1.101
aF24
aS'0'
tp1161
a((lp1162
F8
aF107
aF80
aF0
aF0
aF24.600000000000001
aF0.85599999999999998
aF34
aS'0'
tp1163
a((lp1164
F3
aF176
aF86
aF27
aF156
aF33.299999999999997
aF1.1539999999999999
aF52
aS'1'
tp1165
a((lp1166
F7
aF187
aF68
aF39
aF304
aF37.700000000000003
aF0.254
aF41
aS'1'
tp1167
a((lp1168
F4
aF112
aF78
aF40
aF0
aF39.399999999999999
aF0.23599999999999999
aF38
aS'0'
tp1169
a((lp1170
F7
aF100
aF0
aF0
aF0
aF30
aF0.48399999999999999
aF32
aS'1'
tp1171
a((lp1172
F4.9000000000000004
aF3.1000000000000001
aF1.5
aF0.10000000000000001
aS'1'
tp1173
a((lp1174
F5.5
aF2.6000000000000001
aF4.4000000000000004
aF1.2
aS'2'
tp1175
a((lp1176
F3
aF173
aF82
aF48
aF465
aF38.399999999999999
aF2.137
aF25
aS'1'
tp1177
a((lp1178
F6
aF129
aF90
aF7
aF326
aF19.600000000000001
aF0.58199999999999996
aF60
aS'0'
tp1179
a((lp1180
F1
aF144
aF82
aF40
aF0
aF41.299999999999997
aF0.60699999999999998
aF28
aS'0'
tp1181
a((lp1182
F5.7999999999999998
aF2.7999999999999998
aF5.0999999999999996
aF2.3999999999999999
aS'3'
tp1183
a((lp1184
F7
aF81
aF78
aF40
aF48
aF46.700000000000003
aF0.26100000000000001
aF42
aS'0'
tp1185
a((lp1186
F2
aF83
aF66
aF23
aF50
aF32.200000000000003
aF0.497
aF22
aS'0'
tp1187
a((lp1188
F1
aF107
aF50
aF19
aF0
aF28.300000000000001
aF0.18099999999999999
aF29
aS'0'
tp1189
a((lp1190
F2
aF112
aF86
aF42
aF160
aF38.399999999999999
aF0.246
aF28
aS'0'
tp1191
a((lp1192
F6.5
aF2.7999999999999998
aF4.5999999999999996
aF1.5
aS'2'
tp1193
a((lp1194
F2
aF122
aF76
aF27
aF200
aF35.899999999999999
aF0.48299999999999998
aF26
aS'0'
tp1195
a((lp1196
F8
aF84
aF74
aF31
aF0
aF38.299999999999997
aF0.45700000000000002
aF39
aS'0'
tp1197
a((lp1198
F6
aF109
aF60
aF27
aF0
aF25
aF0.20599999999999999
aF27
aS'0'
tp1199
a((lp1200
F1
aF138
aF82
aF0
aF0
aF40.100000000000001
aF0.23599999999999999
aF28
aS'0'
tp1201
a((lp1202
F1
aF139
aF62
aF41
aF480
aF40.700000000000003
aF0.53600000000000003
aF21
aS'0'
tp1203
a((lp1204
F1
aF124
aF60
aF32
aF0
aF35.799999999999997
aF0.51400000000000001
aF21
aS'0'
tp1205
a((lp1206
F7
aF119
aF0
aF0
aF0
aF25.199999999999999
aF0.20899999999999999
aF37
aS'0'
tp1207
a((lp1208
F5
aF166
aF72
aF19
aF175
aF25.800000000000001
aF0.58699999999999997
aF51
aS'1'
tp1209
a((lp1210
F9
aF89
aF62
aF0
aF0
aF22.5
aF0.14199999999999999
aF33
aS'0'
tp1211
a((lp1212
F2
aF92
aF76
aF20
aF0
aF24.199999999999999
aF1.698
aF28
aS'0'
tp1213
a((lp1214
F4.7999999999999998
aF3
aF1.3999999999999999
aF0.10000000000000001
aS'1'
tp1215
a((lp1216
F4
aF146
aF85
aF27
aF100
aF28.899999999999999
aF0.189
aF27
aS'0'
tp1217
a((lp1218
F5.7000000000000002
aF2.5
aF5
aF2
aS'3'
tp1219
a((lp1220
F0
aF106
aF70
aF37
aF148
aF39.399999999999999
aF0.60499999999999998
aF22
aS'0'
tp1221
a((lp1222
F7
aF194
aF68
aF28
aF0
aF35.899999999999999
aF0.745
aF41
aS'1'
tp1223
a((lp1224
F2
aF108
aF80
aF0
aF0
aF27
aF0.25900000000000001
aF52
aS'1'
tp1225
a((lp1226
F7.2000000000000002
aF3.2000000000000002
aF6
aF1.8
aS'3'
tp1227
a((lp1228
F6
aF111
aF64
aF39
aF0
aF34.200000000000003
aF0.26000000000000001
aF24
aS'0'
tp1229
a((lp1230
F2
aF91
aF62
aF0
aF0
aF27.300000000000001
aF0.52500000000000002
aF22
aS'0'
tp1231
a((lp1232
F0
aF152
aF82
aF39
aF272
aF41.5
aF0.27000000000000002
aF27
aS'0'
tp1233
a((lp1234
F13
aF145
aF82
aF19
aF110
aF22.199999999999999
aF0.245
aF57
aS'0'
tp1235
a((lp1236
F7
aF94
aF64
aF25
aF79
aF33.299999999999997
aF0.73799999999999999
aF41
aS'0'
tp1237
a((lp1238
F2
aF107
aF74
aF30
aF100
aF33.600000000000001
aF0.40400000000000003
aF23
aS'0'
tp1239
a((lp1240
F0
aF107
aF62
aF30
aF74
aF36.600000000000001
aF0.75700000000000001
aF25
aS'1'
tp1241
a((lp1242
F6
aF93
aF50
aF30
aF64
aF28.699999999999999
aF0.35599999999999998
aF23
aS'0'
tp1243
a((lp1244
F6
aF166
aF74
aF0
aF0
aF26.600000000000001
aF0.30399999999999999
aF66
aS'0'
tp1245
a((lp1246
F2
aF99
aF70
aF16
aF44
aF20.399999999999999
aF0.23499999999999999
aF27
aS'0'
tp1247
a((lp1248
F5.5999999999999996
aF3
aF4.0999999999999996
aF1.3
aS'2'
tp1249
a((lp1250
F8
aF109
aF76
aF39
aF114
aF27.899999999999999
aF0.64000000000000001
aF31
aS'1'
tp1251
a((lp1252
F7.9000000000000004
aF3.7999999999999998
aF6.4000000000000004
aF2
aS'3'
tp1253
a((lp1254
F8
aF125
aF96
aF0
aF0
aF0
aF0.23200000000000001
aF54
aS'1'
tp1255
a((lp1256
F2
aF158
aF90
aF0
aF0
aF31.600000000000001
aF0.80500000000000005
aF66
aS'1'
tp1257
a((lp1258
F1
aF131
aF64
aF14
aF415
aF23.699999999999999
aF0.38900000000000001
aF21
aS'0'
tp1259
a((lp1260
F1
aF106
aF76
aF0
aF0
aF37.5
aF0.19700000000000001
aF26
aS'0'
tp1261
a((lp1262
F0
aF101
aF64
aF17
aF0
aF21
aF0.252
aF21
aS'0'
tp1263
a((lp1264
F4
aF116
aF72
aF12
aF87
aF22.100000000000001
aF0.46300000000000002
aF37
aS'0'
tp1265
a((lp1266
F1
aF107
aF68
aF19
aF0
aF26.5
aF0.16500000000000001
aF24
aS'0'
tp1267
a((lp1268
F1
aF92
aF62
aF25
aF41
aF19.5
aF0.48199999999999998
aF25
aS'0'
tp1269
a((lp1270
F1
aF108
aF88
aF19
aF0
aF27.100000000000001
aF0.40000000000000002
aF24
aS'0'
tp1271
a((lp1272
F4
aF128
aF70
aF0
aF0
aF34.299999999999997
aF0.30299999999999999
aF24
aS'0'
tp1273
a((lp1274
F0
aF104
aF76
aF0
aF0
aF18.399999999999999
aF0.58199999999999996
aF27
aS'0'
tp1275
a((lp1276
F10
aF129
aF76
aF28
aF122
aF35.899999999999999
aF0.28000000000000003
aF39
aS'0'
tp1277
a((lp1278
F12
aF84
aF72
aF31
aF0
aF29.699999999999999
aF0.29699999999999999
aF46
aS'1'
tp1279
a((lp1280
F0
aF117
aF66
aF31
aF188
aF30.800000000000001
aF0.49299999999999999
aF22
aS'0'
tp1281
a((lp1282
F8
aF65
aF72
aF23
aF0
aF32
aF0.59999999999999998
aF42
aS'0'
tp1283
a((lp1284
F2
aF100
aF68
aF25
aF71
aF38.5
aF0.32400000000000001
aF26
aS'0'
tp1285
a((lp1286
F6.0999999999999996
aF2.7999999999999998
aF4.7000000000000002
aF1.2
aS'2'
tp1287
a((lp1288
F9
aF112
aF82
aF32
aF175
aF34.200000000000003
aF0.26000000000000001
aF36
aS'1'
tp1289
a((lp1290
F10
aF125
aF70
aF26
aF115
aF31.100000000000001
aF0.20499999999999999
aF41
aS'1'
tp1291
a((lp1292
F0
aF94
aF70
aF27
aF115
aF43.5
aF0.34699999999999998
aF21
aS'0'
tp1293
a((lp1294
F1
aF116
aF70
aF28
aF0
aF27.399999999999999
aF0.20399999999999999
aF21
aS'0'
tp1295
a((lp1296
F10
aF161
aF68
aF23
aF132
aF25.5
aF0.32600000000000001
aF47
aS'1'
tp1297
a((lp1298
F4.5999999999999996
aF3.3999999999999999
aF1.3999999999999999
aF0.29999999999999999
aS'1'
tp1299
a((lp1300
F1
aF95
aF60
aF18
aF58
aF23.899999999999999
aF0.26000000000000001
aF22
aS'0'
tp1301
a((lp1302
F5
aF3.3999999999999999
aF1.6000000000000001
aF0.40000000000000002
aS'1'
tp1303
a((lp1304
F3
aF87
aF60
aF18
aF0
aF21.800000000000001
aF0.44400000000000001
aF21
aS'0'
tp1305
a((lp1306
F7
aF114
aF76
aF17
aF110
aF23.800000000000001
aF0.46600000000000003
aF31
aS'0'
tp1307
a((lp1308
F3
aF107
aF62
aF13
aF48
aF22.899999999999999
aF0.67800000000000005
aF23
aS'1'
tp1309
a((lp1310
F1
aF97
aF68
aF21
aF0
aF27.199999999999999
aF1.095
aF22
aS'0'
tp1311
a((lp1312
F0
aF95
aF85
aF25
aF36
aF37.399999999999999
aF0.247
aF24
aS'1'
tp1313
a((lp1314
F1
aF168
aF88
aF29
aF0
aF35
aF0.90500000000000003
aF52
aS'1'
tp1315
a((lp1316
F1
aF0
aF68
aF35
aF0
aF32
aF0.38900000000000001
aF22
aS'0'
tp1317
a((lp1318
F9
aF140
aF94
aF0
aF0
aF32.700000000000003
aF0.73399999999999999
aF45
aS'1'
tp1319
a((lp1320
F1
aF90
aF62
aF12
aF43
aF27.199999999999999
aF0.57999999999999996
aF24
aS'0'
tp1321
a((lp1322
F5
aF111
aF72
aF28
aF0
aF23.899999999999999
aF0.40699999999999997
aF27
aS'0'
tp1323
a((lp1324
F4
aF127
aF88
aF11
aF155
aF34.5
aF0.59799999999999998
aF28
aS'0'
tp1325
a((lp1326
F2
aF175
aF88
aF0
aF0
aF22.899999999999999
aF0.32600000000000001
aF22
aS'0'
tp1327
a((lp1328
F5
aF130
aF82
aF0
aF0
aF39.100000000000001
aF0.95599999999999996
aF37
aS'1'
tp1329
a((lp1330
F2
aF68
aF70
aF32
aF66
aF25
aF0.187
aF25
aS'0'
tp1331
a((lp1332
F8
aF196
aF76
aF29
aF280
aF37.5
aF0.60499999999999998
aF57
aS'1'
tp1333
a((lp1334
F2
aF106
aF64
aF35
aF119
aF30.5
aF1.3999999999999999
aF34
aS'0'
tp1335
a((lp1336
F7.7000000000000002
aF3
aF6.0999999999999996
aF2.2999999999999998
aS'3'
tp1337
a((lp1338
F5
aF168
aF64
aF0
aF0
aF32.899999999999999
aF0.13500000000000001
aF41
aS'1'
tp1339
a((lp1340
F2
aF120
aF76
aF37
aF105
aF39.700000000000003
aF0.215
aF29
aS'0'
tp1341
a((lp1342
F2
aF71
aF70
aF27
aF0
aF28
aF0.58599999999999997
aF22
aS'0'
tp1343
a((lp1344
F8
aF155
aF62
aF26
aF495
aF34
aF0.54300000000000004
aF46
aS'1'
tp1345
a((lp1346
F6
aF80
aF80
aF36
aF0
aF39.799999999999997
aF0.17699999999999999
aF28
aS'0'
tp1347
a((lp1348
F5.5
aF3.5
aF1.3
aF0.20000000000000001
aS'1'
tp1349
a((lp1350
F0
aF105
aF68
aF22
aF0
aF20
aF0.23599999999999999
aF22
aS'0'
tp1351
a((lp1352
F5
aF108
aF72
aF43
aF75
aF36.100000000000001
aF0.26300000000000001
aF33
aS'0'
tp1353
a((lp1354
F4
aF92
aF80
aF0
aF0
aF42.200000000000003
aF0.23699999999999999
aF29
aS'0'
tp1355
a((lp1356
F0
aF105
aF90
aF0
aF0
aF29.600000000000001
aF0.19700000000000001
aF46
aS'0'
tp1357
a((lp1358
F1
aF143
aF74
aF22
aF61
aF26.199999999999999
aF0.25600000000000001
aF21
aS'0'
tp1359
a((lp1360
F6
aF165
aF68
aF26
aF168
aF33.600000000000001
aF0.63100000000000001
aF49
aS'0'
tp1361
a((lp1362
F1
aF100
aF66
aF15
aF56
aF23.600000000000001
aF0.66600000000000004
aF26
aS'0'
tp1363
a((lp1364
F2
aF99
aF0
aF0
aF0
aF22.199999999999999
aF0.108
aF23
aS'0'
tp1365
a((lp1366
F8
aF176
aF90
aF34
aF300
aF33.700000000000003
aF0.46700000000000003
aF58
aS'1'
tp1367
a((lp1368
F9
aF156
aF86
aF28
aF155
aF34.299999999999997
aF1.1890000000000001
aF42
aS'1'
tp1369
a((lp1370
F13
aF106
aF72
aF54
aF0
aF36.600000000000001
aF0.17799999999999999
aF45
aS'0'
tp1371
a((lp1372
F4.9000000000000004
aF2.3999999999999999
aF3.2999999999999998
aF1
aS'2'
tp1373
a((lp1374
F1
aF157
aF72
aF21
aF168
aF25.600000000000001
aF0.123
aF24
aS'0'
tp1375
a((lp1376
F3
aF89
aF74
aF16
aF85
aF30.399999999999999
aF0.55100000000000005
aF38
aS'0'
tp1377
a((lp1378
F8
aF118
aF72
aF19
aF0
aF23.100000000000001
aF1.476
aF46
aS'0'
tp1379
a((lp1380
F8
aF181
aF68
aF36
aF495
aF30.100000000000001
aF0.61499999999999999
aF60
aS'1'
tp1381
a((lp1382
F0
aF84
aF64
aF22
aF66
aF35.799999999999997
aF0.54500000000000004
aF21
aS'0'
tp1383
a((lp1384
F1
aF125
aF70
aF24
aF110
aF24.300000000000001
aF0.221
aF25
aS'0'
tp1385
a((lp1386
F15
aF136
aF70
aF32
aF110
aF37.100000000000001
aF0.153
aF43
aS'1'
tp1387
a((lp1388
F6.7000000000000002
aF3
aF5
aF1.7
aS'2'
tp1389
a((lp1390
F1
aF181
aF64
aF30
aF180
aF34.100000000000001
aF0.32800000000000001
aF38
aS'1'
tp1391
a((lp1392
F6.2000000000000002
aF2.7999999999999998
aF4.7999999999999998
aF1.8
aS'3'
tp1393
a((lp1394
F4.7000000000000002
aF3.2000000000000002
aF1.3
aF0.20000000000000001
aS'1'
tp1395
a((lp1396
F10
aF115
aF0
aF0
aF0
aF35.299999999999997
aF0.13400000000000001
aF29
aS'0'
tp1397
a((lp1398
F1
aF117
aF88
aF24
aF145
aF34.5
aF0.40300000000000002
aF40
aS'1'
tp1399
a((lp1400
F3
aF126
aF88
aF41
aF235
aF39.299999999999997
aF0.70399999999999996
aF27
aS'0'
tp1401
a((lp1402
F1
aF135
aF54
aF0
aF0
aF26.699999999999999
aF0.68700000000000006
aF62
aS'0'
tp1403
a((lp1404
F5.7000000000000002
aF2.7999999999999998
aF4.5
aF1.3
aS'2'
tp1405
a((lp1406
F3
aF120
aF70
aF30
aF135
aF42.899999999999999
aF0.45200000000000001
aF30
aS'0'
tp1407
a((lp1408
F6.0999999999999996
aF2.8999999999999999
aF4.7000000000000002
aF1.3999999999999999
aS'2'
tp1409
a((lp1410
F1
aF113
aF64
aF35
aF0
aF33.600000000000001
aF0.54300000000000004
aF21
aS'1'
tp1411
a((lp1412
F6.5
aF3
aF5.2000000000000002
aF2
aS'3'
tp1413
a((lp1414
F2
aF119
aF0
aF0
aF0
aF19.600000000000001
aF0.83199999999999996
aF72
aS'0'
tp1415
a((lp1416
F4
aF117
aF62
aF12
aF0
aF29.699999999999999
aF0.38
aF30
aS'1'
tp1417
a((lp1418
F1
aF86
aF66
aF52
aF65
aF41.299999999999997
aF0.91700000000000004
aF29
aS'0'
tp1419
a((lp1420
F7
aF137
aF90
aF41
aF0
aF32
aF0.39100000000000001
aF39
aS'0'
tp1421
a((lp1422
F1
aF118
aF58
aF36
aF94
aF33.299999999999997
aF0.26100000000000001
aF23
aS'0'
tp1423
a((lp1424
F4
aF91
aF70
aF32
aF88
aF33.100000000000001
aF0.44600000000000001
aF22
aS'0'
tp1425
a((lp1426
F8
aF112
aF72
aF0
aF0
aF23.600000000000001
aF0.83999999999999997
aF58
aS'0'
tp1427
a((lp1428
F0
aF119
aF66
aF27
aF0
aF38.799999999999997
aF0.25900000000000001
aF22
aS'0'
tp1429
a((lp1430
F2
aF110
aF74
aF29
aF125
aF32.399999999999999
aF0.69799999999999995
aF27
aS'0'
tp1431
a((lp1432
F0
aF57
aF60
aF0
aF0
aF21.699999999999999
aF0.73499999999999999
aF67
aS'0'
tp1433
a((lp1434
F2
aF146
aF0
aF0
aF0
aF27.5
aF0.23999999999999999
aF28
aS'1'
tp1435
a((lp1436
F5
aF103
aF108
aF37
aF0
aF39.200000000000003
aF0.30499999999999999
aF65
aS'0'
tp1437
a((lp1438
F0
aF137
aF84
aF27
aF0
aF27.300000000000001
aF0.23100000000000001
aF59
aS'0'
tp1439
a((lp1440
F8
aF183
aF64
aF0
aF0
aF23.300000000000001
aF0.67200000000000004
aF32
aS'1'
tp1441
a((lp1442
F5
aF99
aF54
aF28
aF83
aF34
aF0.499
aF30
aS'0'
tp1443
a((lp1444
F1
aF117
aF60
aF23
aF106
aF33.799999999999997
aF0.46600000000000003
aF27
aS'0'
tp1445
a((lp1446
F6.4000000000000004
aF3.1000000000000001
aF5.5
aF1.8
aS'3'
tp1447
a((lp1448
F3
aF173
aF78
aF39
aF185
aF33.799999999999997
aF0.96999999999999997
aF31
aS'1'
tp1449
a((lp1450
F1
aF130
aF70
aF13
aF105
aF25.899999999999999
aF0.47199999999999998
aF22
aS'0'
tp1451
a((lp1452
F6
aF154
aF74
aF32
aF193
aF29.300000000000001
aF0.83899999999999997
aF39
aS'0'
tp1453
a((lp1454
F6
aF137
aF61
aF0
aF0
aF24.199999999999999
aF0.151
aF55
aS'0'
tp1455
a((lp1456
F0
aF100
aF88
aF60
aF110
aF46.799999999999997
aF0.96199999999999997
aF31
aS'0'
tp1457
a((lp1458
F7
aF160
aF54
aF32
aF175
aF30.5
aF0.58799999999999997
aF39
aS'1'
tp1459
a((lp1460
F3
aF111
aF58
aF31
aF44
aF29.5
aF0.42999999999999999
aF22
aS'0'
tp1461
a((lp1462
F9
aF164
aF84
aF21
aF0
aF30.800000000000001
aF0.83099999999999996
aF32
aS'1'
tp1463
a((lp1464
F3
aF80
aF0
aF0
aF0
aF0
aF0.17399999999999999
aF22
aS'0'
tp1465
a((lp1466
F0
aF180
aF90
aF26
aF90
aF36.5
aF0.314
aF35
aS'1'
tp1467
a((lp1468
F6
aF96
aF0
aF0
aF0
aF23.699999999999999
aF0.19
aF28
aS'0'
tp1469
a((lp1470
F5
aF86
aF68
aF28
aF71
aF30.199999999999999
aF0.36399999999999999
aF24
aS'0'
tp1471
a((lp1472
F1
aF95
aF66
aF13
aF38
aF19.600000000000001
aF0.33400000000000002
aF25
aS'0'
tp1473
a((lp1474
F2
aF123
aF48
aF32
aF165
aF42.100000000000001
aF0.52000000000000002
aF26
aS'0'
tp1475
a((lp1476
F1
aF80
aF74
aF11
aF60
aF30
aF0.52700000000000002
aF22
aS'0'
tp1477
a((lp1478
F1
aF96
aF122
aF0
aF0
aF22.399999999999999
aF0.20699999999999999
aF27
aS'0'
tp1479
a((lp1480
F7
aF114
aF64
aF0
aF0
aF27.399999999999999
aF0.73199999999999998
aF34
aS'1'
tp1481
a((lp1482
F8
aF100
aF74
aF40
aF215
aF39.399999999999999
aF0.66100000000000003
aF43
aS'1'
tp1483
a((lp1484
F4
aF146
aF78
aF0
aF0
aF38.5
aF0.52000000000000002
aF67
aS'1'
tp1485
a((lp1486
F11
aF138
aF76
aF0
aF0
aF33.200000000000003
aF0.41999999999999998
aF35
aS'0'
tp1487
a((lp1488
F0
aF179
aF50
aF36
aF159
aF37.799999999999997
aF0.45500000000000002
aF22
aS'1'
tp1489
a((lp1490
F13
aF106
aF70
aF0
aF0
aF34.200000000000003
aF0.251
aF52
aS'0'
tp1491
a((lp1492
F0
aF121
aF66
aF30
aF165
aF34.299999999999997
aF0.20300000000000001
aF33
aS'1'
tp1493
a((lp1494
F4.7999999999999998
aF3
aF1.3999999999999999
aF0.29999999999999999
aS'1'
tp1495
a((lp1496
F2
aF157
aF74
aF35
aF440
aF39.399999999999999
aF0.13400000000000001
aF30
aS'0'
tp1497
a((lp1498
F3
aF99
aF54
aF19
aF86
aF25.600000000000001
aF0.154
aF24
aS'0'
tp1499
a((lp1500
F6.5999999999999996
aF2.8999999999999999
aF4.5999999999999996
aF1.3
aS'2'
tp1501
a((lp1502
F6
aF107
aF88
aF0
aF0
aF36.799999999999997
aF0.72699999999999998
aF31
aS'0'
tp1503
a((lp1504
F4
aF114
aF64
aF0
aF0
aF28.899999999999999
aF0.126
aF24
aS'0'
tp1505
a((lp1506
F7
aF106
aF92
aF18
aF0
aF22.699999999999999
aF0.23499999999999999
aF48
aS'0'
tp1507
a((lp1508
F1
aF124
aF74
aF36
aF0
aF27.800000000000001
aF0.10000000000000001
aF30
aS'0'
tp1509
a((lp1510
F3
aF80
aF82
aF31
aF70
aF34.200000000000003
aF1.292
aF27
aS'1'
tp1511
a((lp1512
F0
aF104
aF64
aF37
aF64
aF33.600000000000001
aF0.51000000000000001
aF22
aS'1'
tp1513
a((lp1514
F7.7000000000000002
aF2.7999999999999998
aF6.7000000000000002
aF2
aS'3'
tp1515
a((lp1516
F7
aF150
aF78
aF29
aF126
aF35.200000000000003
aF0.69199999999999995
aF54
aS'1'
tp1517
a((lp1518
F14
aF100
aF78
aF25
aF184
aF36.600000000000001
aF0.41199999999999998
aF46
aS'1'
tp1519
a((lp1520
F6
aF2.2000000000000002
aF4
aF1
aS'2'
tp1521
a((lp1522
F9
aF112
aF82
aF24
aF0
aF28.199999999999999
aF1.282
aF50
aS'1'
tp1523
a((lp1524
F5
aF3.3999999999999999
aF1.5
aF0.20000000000000001
aS'1'
tp1525
a((lp1526
F5
aF139
aF64
aF35
aF140
aF28.600000000000001
aF0.41099999999999998
aF26
aS'0'
tp1527
a((lp1528
F6.5
aF3.2000000000000002
aF5.0999999999999996
aF2
aS'3'
tp1529
a((lp1530
F4
aF132
aF86
aF31
aF0
aF28
aF0.41899999999999998
aF63
aS'0'
tp1531
a((lp1532
F6.4000000000000004
aF2.7999999999999998
aF5.5999999999999996
aF2.1000000000000001
aS'3'
tp1533
a((lp1534
F1
aF139
aF46
aF19
aF83
aF28.699999999999999
aF0.65400000000000003
aF22
aS'0'
tp1535
a((lp1536
F6
aF0
aF68
aF41
aF0
aF39
aF0.72699999999999998
aF41
aS'1'
tp1537
a((lp1538
F6
aF125
aF78
aF31
aF0
aF27.600000000000001
aF0.56499999999999995
aF49
aS'1'
tp1539
a((lp1540
F5
aF88
aF78
aF30
aF0
aF27.600000000000001
aF0.25800000000000001
aF37
aS'0'
tp1541
a((lp1542
F4
aF183
aF0
aF0
aF0
aF28.399999999999999
aF0.21199999999999999
aF36
aS'1'
tp1543
a((lp1544
F7
aF106
aF60
aF24
aF0
aF26.5
aF0.29599999999999999
aF29
aS'1'
tp1545
a((lp1546
F3
aF169
aF74
aF19
aF125
aF29.899999999999999
aF0.26800000000000002
aF31
aS'1'
tp1547
a((lp1548
F1
aF181
aF78
aF42
aF293
aF40
aF1.258
aF22
aS'1'
tp1549
a((lp1550
F7
aF83
aF78
aF26
aF71
aF29.300000000000001
aF0.76700000000000002
aF36
aS'0'
tp1551
a((lp1552
F0
aF113
aF76
aF0
aF0
aF33.299999999999997
aF0.27800000000000002
aF23
aS'1'
tp1553
a((lp1554
F0
aF180
aF78
aF63
aF14
aF59.399999999999999
aF2.4199999999999999
aF25
aS'1'
tp1555
a((lp1556
F2
aF134
aF70
aF0
aF0
aF28.899999999999999
aF0.54200000000000004
aF23
aS'1'
tp1557
a((lp1558
F2
aF146
aF70
aF38
aF360
aF28
aF0.33700000000000002
aF29
aS'1'
tp1559
a((lp1560
F5.5999999999999996
aF3
aF4.5
aF1.5
aS'2'
tp1561
a((lp1562
F4
aF134
aF72
aF0
aF0
aF23.800000000000001
aF0.27700000000000002
aF60
aS'1'
tp1563
a((lp1564
F7
aF105
aF0
aF0
aF0
aF0
aF0.30499999999999999
aF24
aS'0'
tp1565
a((lp1566
F2
aF142
aF82
aF18
aF64
aF24.699999999999999
aF0.76100000000000001
aF21
aS'0'
tp1567
a((lp1568
F0
aF198
aF66
aF32
aF274
aF41.299999999999997
aF0.502
aF28
aS'1'
tp1569
a((lp1570
F5.7999999999999998
aF2.7000000000000002
aF5.0999999999999996
aF1.8999999999999999
aS'3'
tp1571
a((lp1572
F7
aF3.2000000000000002
aF4.7000000000000002
aF1.3999999999999999
aS'2'
tp1573
a((lp1574
F5
aF3
aF1.6000000000000001
aF0.20000000000000001
aS'1'
tp1575
a((lp1576
F9
aF102
aF76
aF37
aF0
aF32.899999999999999
aF0.66500000000000004
aF46
aS'1'
tp1577
a((lp1578
F8
aF179
aF72
aF42
aF130
aF32.700000000000003
aF0.71899999999999997
aF36
aS'1'
tp1579
a((lp1580
F6.4000000000000004
aF2.8999999999999999
aF4.2999999999999998
aF1.3
aS'2'
tp1581
a((lp1582
F0
aF167
aF0
aF0
aF0
aF32.299999999999997
aF0.83899999999999997
aF30
aS'1'
tp1583
a((lp1584
F2
aF117
aF90
aF19
aF71
aF25.199999999999999
aF0.313
aF21
aS'0'
tp1585
a((lp1586
F1
aF121
aF78
aF39
aF74
aF39
aF0.26100000000000001
aF28
aS'0'
tp1587
a((lp1588
F1
aF153
aF82
aF42
aF485
aF40.600000000000001
aF0.68700000000000006
aF23
aS'0'
tp1589
a((lp1590
F5.7000000000000002
aF2.6000000000000001
aF3.5
aF1
aS'2'
tp1591
a((lp1592
F0
aF128
aF68
aF19
aF180
aF30.5
aF1.391
aF25
aS'1'
tp1593
a((lp1594
F1
aF109
aF58
aF18
aF116
aF28.5
aF0.219
aF22
aS'0'
tp1595
a((lp1596
F2
aF121
aF70
aF32
aF95
aF39.100000000000001
aF0.88600000000000001
aF23
aS'0'
tp1597
a((lp1598
F12
aF88
aF74
aF40
aF54
aF35.299999999999997
aF0.378
aF48
aS'0'
tp1599
a((lp1600
F3
aF129
aF64
aF29
aF115
aF26.399999999999999
aF0.219
aF28
aS'1'
tp1601
a((lp1602
F7
aF161
aF86
aF0
aF0
aF30.399999999999999
aF0.16500000000000001
aF47
aS'1'
tp1603
a((lp1604
F1
aF143
aF86
aF30
aF330
aF30.100000000000001
aF0.89200000000000002
aF23
aS'0'
tp1605
a((lp1606
F4.9000000000000004
aF3.1000000000000001
aF1.5
aF0.10000000000000001
aS'1'
tp1607
a((lp1608
F5
aF132
aF80
aF0
aF0
aF26.800000000000001
aF0.186
aF69
aS'0'
tp1609
a((lp1610
F0
aF132
aF78
aF0
aF0
aF32.399999999999999
aF0.39300000000000002
aF21
aS'0'
tp1611
a((lp1612
F6.2999999999999998
aF3.3999999999999999
aF5.5999999999999996
aF2.3999999999999999
aS'3'
tp1613
a((lp1614
F3
aF182
aF74
aF0
aF0
aF30.5
aF0.34499999999999997
aF29
aS'1'
tp1615
a((lp1616
F2
aF122
aF52
aF43
aF158
aF36.200000000000003
aF0.81599999999999995
aF28
aS'0'
tp1617
a((lp1618
F3
aF180
aF64
aF25
aF70
aF34
aF0.27100000000000002
aF26
aS'0'
tp1619
a((lp1620
F6
aF115
aF60
aF39
aF0
aF33.700000000000003
aF0.245
aF40
aS'1'
tp1621
a((lp1622
F8
aF120
aF78
aF0
aF0
aF25
aF0.40899999999999997
aF64
aS'0'
tp1623
a((lp1624
F6.5
aF3
aF5.5
aF1.8
aS'3'
tp1625
a((lp1626
F5
aF104
aF74
aF0
aF0
aF28.800000000000001
aF0.153
aF48
aS'0'
tp1627
a((lp1628
F2
aF114
aF68
aF22
aF0
aF28.699999999999999
aF0.091999999999999998
aF25
aS'0'
tp1629
a((lp1630
F1
aF81
aF74
aF41
aF57
aF46.299999999999997
aF1.0960000000000001
aF32
aS'0'
tp1631
a((lp1632
F2
aF101
aF58
aF17
aF265
aF24.199999999999999
aF0.61399999999999999
aF23
aS'0'
tp1633
a((lp1634
F3
aF113
aF44
aF13
aF0
aF22.399999999999999
aF0.14000000000000001
aF22
aS'0'
tp1635
a((lp1636
F0
aF124
aF70
aF20
aF0
aF27.399999999999999
aF0.254
aF36
aS'1'
tp1637
a((lp1638
F4
aF110
aF66
aF0
aF0
aF31.899999999999999
aF0.47099999999999997
aF29
aS'0'
tp1639
a((lp1640
F0
aF137
aF40
aF35
aF168
aF43.100000000000001
aF2.2879999999999998
aF33
aS'1'
tp1641
a((lp1642
F1
aF96
aF64
aF27
aF87
aF33.200000000000003
aF0.28899999999999998
aF21
aS'0'
tp1643
a((lp1644
F1
aF0
aF48
aF20
aF0
aF24.699999999999999
aF0.14000000000000001
aF22
aS'0'
tp1645
a((lp1646
F0
aF165
aF90
aF33
aF680
aF52.299999999999997
aF0.42699999999999999
aF23
aS'0'
tp1647
a((lp1648
F5
aF99
aF74
aF27
aF0
aF29
aF0.20300000000000001
aF32
aS'0'
tp1649
a((lp1650
F2
aF130
aF96
aF0
aF0
aF22.600000000000001
aF0.26800000000000002
aF21
aS'0'
tp1651
a((lp1652
F8
aF108
aF70
aF0
aF0
aF30.5
aF0.95499999999999996
aF33
aS'1'
tp1653
a((lp1654
F5
aF117
aF86
aF30
aF105
aF39.100000000000001
aF0.251
aF42
aS'0'
tp1655
a((lp1656
F5.0999999999999996
aF3.3999999999999999
aF1.5
aF0.20000000000000001
aS'1'
tp1657
a((lp1658
F5
aF166
aF76
aF0
aF0
aF45.700000000000003
aF0.34000000000000002
aF27
aS'1'
tp1659
a((lp1660
F1
aF73
aF50
aF10
aF0
aF23
aF0.248
aF21
aS'0'
tp1661
a((lp1662
F7
aF142
aF90
aF24
aF480
aF30.399999999999999
aF0.128
aF43
aS'1'
tp1663
a((lp1664
F9
aF170
aF74
aF31
aF0
aF44
aF0.40300000000000002
aF43
aS'1'
tp1665
a((lp1666
F5
aF3.2999999999999998
aF1.3999999999999999
aF0.20000000000000001
aS'1'
tp1667
a((lp1668
F2
aF141
aF58
aF34
aF128
aF25.399999999999999
aF0.69899999999999995
aF24
aS'0'
tp1669
a((lp1670
F7.5999999999999996
aF3
aF6.5999999999999996
aF2.1000000000000001
aS'3'
tp1671
a((lp1672
F5
aF189
aF64
aF33
aF325
aF31.199999999999999
aF0.58299999999999996
aF29
aS'1'
tp1673
a((lp1674
F4
aF83
aF86
aF19
aF0
aF29.300000000000001
aF0.317
aF34
aS'0'
tp1675
a((lp1676
F11
aF136
aF84
aF35
aF130
aF28.300000000000001
aF0.26000000000000001
aF42
aS'1'
tp1677
a((lp1678
F5
aF2
aF3.5
aF1
aS'2'
tp1679
a((lp1680
F1
aF71
aF48
aF18
aF76
aF20.399999999999999
aF0.32300000000000001
aF22
aS'0'
tp1681
a((lp1682
F6
aF183
aF94
aF0
aF0
aF40.799999999999997
aF1.4610000000000001
aF45
aS'0'
tp1683
a((lp1684
F10
aF148
aF84
aF48
aF237
aF37.600000000000001
aF1.0009999999999999
aF51
aS'1'
tp1685
a((lp1686
F5
aF115
aF76
aF0
aF0
aF31.199999999999999
aF0.34300000000000003
aF44
aS'1'
tp1687
a((lp1688
F0
aF127
aF80
aF37
aF210
aF36.299999999999997
aF0.80400000000000005
aF23
aS'0'
tp1689
a((lp1690
F1
aF90
aF68
aF8
aF0
aF24.5
aF1.1379999999999999
aF36
aS'0'
tp1691
a((lp1692
F0
aF117
aF80
aF31
aF53
aF45.200000000000003
aF0.088999999999999996
aF24
aS'0'
tp1693
a((lp1694
F0
aF102
aF64
aF46
aF78
aF40.600000000000001
aF0.496
aF21
aS'0'
tp1695
a((lp1696
F1
aF112
aF72
aF30
aF176
aF34.399999999999999
aF0.52800000000000002
aF25
aS'0'
tp1697
a((lp1698
F5.0999999999999996
aF3.7999999999999998
aF1.6000000000000001
aF0.20000000000000001
aS'1'
tp1699
a((lp1700
F1
aF95
aF82
aF25
aF180
aF35
aF0.23300000000000001
aF43
aS'1'
tp1701
a((lp1702
F3
aF163
aF70
aF18
aF105
aF31.600000000000001
aF0.26800000000000002
aF28
aS'1'
tp1703
a((lp1704
F4
aF171
aF72
aF0
aF0
aF43.600000000000001
aF0.47899999999999998
aF26
aS'1'
tp1705
a((lp1706
F4
aF95
aF64
aF0
aF0
aF32
aF0.161
aF31
aS'1'
tp1707
a((lp1708
F6
aF98
aF58
aF33
aF190
aF34
aF0.42999999999999999
aF43
aS'0'
tp1709
a((lp1710
F5.2000000000000002
aF2.7000000000000002
aF3.8999999999999999
aF1.3999999999999999
aS'2'
tp1711
a((lp1712
F2
aF94
aF76
aF18
aF66
aF31.600000000000001
aF0.64900000000000002
aF23
aS'0'
tp1713
a((lp1714
F6.9000000000000004
aF3.1000000000000001
aF5.0999999999999996
aF2.2999999999999998
aS'3'
tp1715
a((lp1716
F6
aF92
aF92
aF0
aF0
aF19.899999999999999
aF0.188
aF28
aS'0'
tp1717
a((lp1718
F4
aF95
aF70
aF32
aF0
aF32.100000000000001
aF0.61199999999999999
aF24
aS'0'
tp1719
a((lp1720
F1
aF119
aF44
aF47
aF63
aF35.5
aF0.28000000000000003
aF25
aS'0'
tp1721
a((lp1722
F0
aF117
aF0
aF0
aF0
aF33.799999999999997
aF0.93200000000000005
aF44
aS'0'
tp1723
a((lp1724
F8
aF110
aF76
aF0
aF0
aF27.800000000000001
aF0.23699999999999999
aF58
aS'0'
tp1725
a((lp1726
F5.7999999999999998
aF2.7000000000000002
aF4.0999999999999996
aF1
aS'2'
tp1727
a((lp1728
F1
aF71
aF78
aF50
aF45
aF33.200000000000003
aF0.42199999999999999
aF21
aS'0'
tp1729
a((lp1730
F3
aF142
aF80
aF15
aF0
aF32.399999999999999
aF0.20000000000000001
aF63
aS'0'
tp1731
a((lp1732
F2
aF84
aF0
aF0
aF0
aF0
aF0.30399999999999999
aF21
aS'0'
tp1733
a((lp1734
F3
aF102
aF44
aF20
aF94
aF30.800000000000001
aF0.40000000000000002
aF26
aS'0'
tp1735
a((lp1736
F9
aF154
aF78
aF30
aF100
aF30.899999999999999
aF0.16400000000000001
aF45
aS'0'
tp1737
a((lp1738
F1
aF126
aF60
aF0
aF0
aF30.100000000000001
aF0.34899999999999998
aF47
aS'1'
tp1739
a((lp1740
F0
aF131
aF66
aF40
aF0
aF34.299999999999997
aF0.19600000000000001
aF22
aS'1'
tp1741
a((lp1742
F4
aF147
aF74
aF25
aF293
aF34.899999999999999
aF0.38500000000000001
aF30
aS'0'
tp1743
a((lp1744
F6
aF124
aF72
aF0
aF0
aF27.600000000000001
aF0.36799999999999999
aF29
aS'1'
tp1745
a((lp1746
F8
aF120
aF86
aF0
aF0
aF28.399999999999999
aF0.25900000000000001
aF22
aS'1'
tp1747
a((lp1748
F1
aF126
aF56
aF29
aF152
aF28.699999999999999
aF0.80100000000000005
aF21
aS'0'
tp1749
a((lp1750
F3
aF191
aF68
aF15
aF130
aF30.899999999999999
aF0.29899999999999999
aF34
aS'0'
tp1751
a((lp1752
F1
aF109
aF56
aF21
aF135
aF25.199999999999999
aF0.83299999999999996
aF23
aS'0'
tp1753
a((lp1754
F1
aF71
aF62
aF0
aF0
aF21.800000000000001
aF0.41599999999999998
aF26
aS'0'
tp1755
a((lp1756
F4
aF136
aF70
aF0
aF0
aF31.199999999999999
aF1.1819999999999999
aF22
aS'1'
tp1757
a((lp1758
F5
aF116
aF74
aF29
aF0
aF32.299999999999997
aF0.66000000000000003
aF35
aS'1'
tp1759
a((lp1760
F5
aF143
aF78
aF0
aF0
aF45
aF0.19
aF47
aS'0'
tp1761
a((lp1762
F10
aF92
aF62
aF0
aF0
aF25.899999999999999
aF0.16700000000000001
aF31
aS'0'
tp1763
a((lp1764
F1
aF84
aF64
aF23
aF115
aF36.899999999999999
aF0.47099999999999997
aF28
aS'0'
tp1765
a((lp1766
F0
aF97
aF64
aF36
aF100
aF36.799999999999997
aF0.59999999999999998
aF25
aS'0'
tp1767
a((lp1768
F6.2999999999999998
aF2.5
aF4.9000000000000004
aF1.5
aS'2'
tp1769
a((lp1770
F1
aF79
aF80
aF25
aF37
aF25.399999999999999
aF0.58299999999999996
aF22
aS'0'
tp1771
a((lp1772
F6
aF123
aF72
aF45
aF230
aF33.600000000000001
aF0.73299999999999998
aF34
aS'0'
tp1773
a((lp1774
F2
aF112
aF78
aF50
aF140
aF39.399999999999999
aF0.17499999999999999
aF24
aS'0'
tp1775
a((lp1776
F12
aF140
aF85
aF33
aF0
aF37.399999999999999
aF0.24399999999999999
aF41
aS'0'
tp1777
a((lp1778
F5
aF97
aF76
aF27
aF0
aF35.600000000000001
aF0.378
aF52
aS'1'
tp1779
a((lp1780
F11
aF138
aF74
aF26
aF144
aF36.100000000000001
aF0.55700000000000005
aF50
aS'1'
tp1781
a((lp1782
F8
aF186
aF90
aF35
aF225
aF34.5
aF0.42299999999999999
aF37
aS'1'
tp1783
a((lp1784
F0
aF101
aF76
aF0
aF0
aF35.700000000000003
aF0.19800000000000001
aF26
aS'0'
tp1785
a((lp1786
F6
aF119
aF50
aF22
aF176
aF27.100000000000001
aF1.3180000000000001
aF33
aS'1'
tp1787
a((lp1788
F4.7999999999999998
aF3.3999999999999999
aF1.8999999999999999
aF0.20000000000000001
aS'1'
tp1789
a((lp1790
F2
aF115
aF64
aF22
aF0
aF30.800000000000001
aF0.42099999999999999
aF21
aS'0'
tp1791
a((lp1792
F4
aF123
aF80
aF15
aF176
aF32
aF0.443
aF34
aS'0'
tp1793
a((lp1794
F2
aF127
aF46
aF21
aF335
aF34.399999999999999
aF0.17599999999999999
aF22
aS'0'
tp1795
a((lp1796
F8
aF91
aF82
aF0
aF0
aF35.600000000000001
aF0.58699999999999997
aF68
aS'0'
tp1797
a((lp1798
F6
aF134
aF80
aF37
aF370
aF46.200000000000003
aF0.23799999999999999
aF46
aS'1'
tp1799
a((lp1800
F2
aF122
aF60
aF18
aF106
aF29.800000000000001
aF0.71699999999999997
aF22
aS'0'
tp1801
a((lp1802
F5
aF187
aF76
aF27
aF207
aF43.600000000000001
aF1.034
aF53
aS'1'
tp1803
a((lp1804
F7
aF133
aF84
aF0
aF0
aF40.200000000000003
aF0.69599999999999995
aF37
aS'0'
tp1805
a((lp1806
F6
aF148
aF72
aF35
aF0
aF33.600000000000001
aF0.627
aF50
aS'1'
tp1807
a((lp1808
F1
aF90
aF62
aF18
aF59
aF25.100000000000001
aF1.268
aF25
aS'0'
tp1809
a((lp1810
F9
aF145
aF80
aF46
aF130
aF37.899999999999999
aF0.63700000000000001
aF40
aS'1'
tp1811
a((lp1812
F2
aF90
aF68
aF42
aF0
aF38.200000000000003
aF0.503
aF27
aS'1'
tp1813
a((lp1814
F3
aF132
aF80
aF0
aF0
aF34.399999999999999
aF0.40200000000000002
aF44
aS'1'
tp1815
a((lp1816
F0
aF100
aF70
aF26
aF50
aF30.800000000000001
aF0.59699999999999998
aF21
aS'0'
tp1817
a((lp1818
F5.7999999999999998
aF2.6000000000000001
aF4
aF1.2
aS'2'
tp1819
a((lp1820
F5.2000000000000002
aF3.5
aF1.5
aF0.20000000000000001
aS'1'
tp1821
a((lp1822
F5
aF110
aF68
aF0
aF0
aF26
aF0.29199999999999998
aF30
aS'0'
tp1823
a((lp1824
F6
aF80
aF66
aF30
aF0
aF26.199999999999999
aF0.313
aF41
aS'0'
tp1825
a((lp1826
F0
aF107
aF76
aF0
aF0
aF45.299999999999997
aF0.68600000000000005
aF24
aS'0'
tp1827
a((lp1828
F1
aF108
aF60
aF46
aF178
aF35.5
aF0.41499999999999998
aF24
aS'0'
tp1829
a((lp1830
F5.2999999999999998
aF3.7000000000000002
aF1.5
aF0.20000000000000001
aS'1'
tp1831
a((lp1832
F2
aF92
aF62
aF28
aF0
aF31.600000000000001
aF0.13
aF24
aS'0'
tp1833
a((lp1834
F1
aF109
aF60
aF8
aF182
aF25.399999999999999
aF0.94699999999999995
aF21
aS'0'
tp1835
a((lp1836
F5
aF128
aF80
aF0
aF0
aF34.600000000000001
aF0.14399999999999999
aF45
aS'0'
tp1837
a.