(lp1
(lp2
I14
aI1
aI2
aI14
aI96
aI2
aI2
aI0
aI1
aI5
aI1
aI3
aI1290
aI1
aa(lp3
I13
aI0
aI2
aI17
aI110
aI2
aI1
aI0
aI0
aI3
aI1
aI1
aI750
aI2
aa(lp4
I11
aI1
aI2
aI18
aI98
aI3
aI2
aI0
aI1
aI3
aI1
aI2
aI345
aI2
aa(lp5
I13
aI2
aI2
aI22
aI90
aI1
aI0
aI0
aI1
aI9
aI0
aI1
aI615
aI3
aa(lp6
I13
aI0
aI1
aI16
aI86
aI1
aI2
aI0
aI1
aI4
aI1
aI2
aI392
aI2
aa(lp7
I12
aI2
aI2
aI21
aI85
aI2
aI2
aI0
aI1
aI2
aI0
aI3
aI378
aI2
aa(lp8
I13
aI1
aI2
aI22
aI89
aI2
aI1
aI0
aI2
aI11
aI0
aI1
aI620
aI3
aa(lp9
I13
aI3
aI2
aI23
aI97
aI1
aI0
aI0
aI0
aI4
aI0
aI2
aI520
aI3
aa(lp10
I13
aI4
aI2
aI25
aI112
aI1
aI0
aI0
aI1
aI8
aI0
aI1
aI630
aI3
aa(lp11
I11
aI0
aI2
aI21
aI88
aI2
aI2
aI0
aI1
aI3
aI1
aI2
aI434
aI2
aa(lp12
I12
aI1
aI2
aI30
aI139
aI3
aI2
aI0
aI1
aI3
aI1
aI3
aI985
aI2
aa(lp13
I12
aI1
aI2
aI18
aI98
aI2
aI2
aI0
aI2
aI4
aI1
aI2
aI678
aI2
aa(lp14
I13
aI1
aI2
aI20
aI116
aI2
aI2
aI0
aI2
aI6
aI0
aI3
aI1120
aI1
aa(lp15
I13
aI1
aI2
aI24
aI87
aI1
aI1
aI0
aI1
aI3
aI0
aI2
aI472
aI2
aa(lp16
I13
aI3
aI2
aI18
aI90
aI2
aI2
aI0
aI1
aI4
aI0
aI3
aI1035
aI1
aa(lp17
I12
aI2
aI2
aI18
aI88
aI2
aI2
aI0
aI1
aI2
aI1
aI3
aI290
aI2
aa(lp18
I12
aI4
aI2
aI22
aI80
aI2
aI1
aI0
aI1
aI2
aI0
aI2
aI580
aI2
aa(lp19
I12
aI1
aI2
aI18
aI81
aI1
aI1
aI0
aI1
aI2
aI1
aI2
aI480
aI2
aa(lp20
I12
aI2
aI1
aI17
aI97
aI2
aI2
aI0
aI1
aI3
aI1
aI2
aI710
aI2
aa(lp21
I13
aI1
aI2
aI20
aI115
aI2
aI3
aI0
aI1
aI6
aI1
aI2
aI1130
aI1
aa(lp22
I13
aI3
aI2
aI20
aI107
aI1
aI0
aI0
aI0
aI5
aI0
aI1
aI680
aI3
aa(lp23
I12
aI1
aI1
aI16
aI151
aI1
aI1
aI0
aI2
aI2
aI1
aI3
aI718
aI2
aa(lp24
I12
aI5
aI2
aI25
aI96
aI1
aI0
aI0
aI1
aI5
aI0
aI1
aI515
aI3
aa(lp25
I13
aI1
aI2
aI17
aI94
aI2
aI2
aI0
aI2
aI5
aI1
aI3
aI1265
aI1
aa(lp26
I11
aI1
aI1
aI20
aI86
aI1
aI1
aI0
aI1
aI1
aI0
aI3
aI495
aI2
aa(lp27
I12
aI1
aI2
aI19
aI87
aI3
aI3
aI0
aI1
aI4
aI1
aI2
aI420
aI2
aa(lp28
I13
aI2
aI3
aI25
aI124
aI2
aI2
aI0
aI1
aI3
aI1
aI3
aI830
aI1
aa(lp29
I12
aI3
aI2
aI19
aI87
aI2
aI1
aI0
aI1
aI1
aI0
aI3
aI564
aI2
aa(lp30
I13
aI1
aI2
aI20
aI96
aI2
aI2
aI0
aI1
aI3
aI1
aI3
aI845
aI1
aa(lp31
I13
aI3
aI2
aI23
aI102
aI1
aI0
aI0
aI1
aI7
aI0
aI1
aI750
aI3
aa(lp32
I13
aI1
aI2
aI17
aI104
aI2
aI2
aI0
aI1
aI3
aI1
aI2
aI990
aI1
aa(lp33
I12
aI4
aI2
aI21
aI86
aI1
aI0
aI0
aI0
aI7
aI0
aI1
aI625
aI3
aa(lp34
I13
aI1
aI2
aI16
aI98
aI2
aI3
aI0
aI1
aI7
aI1
aI3
aI1045
aI1
aa(lp35
I11
aI1
aI1
aI16
aI97
aI1
aI1
aI0
aI1
aI3
aI1
aI2
aI428
aI2
aa(lp36
I14
aI1
aI2
aI16
aI96
aI2
aI2
aI0
aI1
aI4
aI1
aI3
aI1035
aI1
aa(lp37
I12
aI1
aI2
aI16
aI100
aI2
aI1
aI0
aI0
aI5
aI0
aI1
aI450
aI2
aa(lp38
I12
aI2
aI2
aI20
aI104
aI1
aI1
aI0
aI0
aI5
aI0
aI1
aI530
aI3
aa(lp39
I12
aI1
aI2
aI19
aI80
aI1
aI2
aI0
aI1
aI3
aI1
aI3
aI510
aI2
aa(lp40
I13
aI1
aI2
aI17
aI107
aI3
aI3
aI0
aI2
aI5
aI0
aI3
aI885
aI1
aa(lp41
I13
aI3
aI2
aI21
aI92
aI1
aI0
aI0
aI1
aI8
aI0
aI1
aI650
aI3
aa(lp42
I12
aI3
aI2
aI22
aI106
aI1
aI0
aI0
aI0
aI5
aI0
aI2
aI570
aI3
aa(lp43
I12
aI1
aI2
aI23
aI70
aI2
aI1
aI0
aI1
aI1
aI1
aI3
aI625
aI2
aa(lp44
I12
aI1
aI2
aI17
aI95
aI2
aI2
aI0
aI1
aI3
aI1
aI3
aI1015
aI1
aa(lp45
I11
aI1
aI2
aI21
aI85
aI2
aI2
aI0
aI2
aI1
aI1
aI2
aI407
aI2
aa(lp46
I12
aI3
aI2
aI19
aI96
aI1
aI0
aI0
aI0
aI5
aI0
aI1
aI510
aI3
aa(lp47
I12
aI1
aI2
aI20
aI103
aI1
aI0
aI0
aI1
aI7
aI0
aI1
aI640
aI3
aa(lp48
I12
aI2
aI2
aI21
aI96
aI1
aI0
aI0
aI0
aI4
aI0
aI2
aI600
aI3
aa(lp49
I12
aI3
aI2
aI18
aI88
aI2
aI2
aI0
aI2
aI2
aI1
aI2
aI406
aI2
aa(lp50
I11
aI2
aI2
aI20
aI96
aI2
aI2
aI0
aI1
aI3
aI0
aI3
aI625
aI2
aa(lp51
I13
aI2
aI2
aI24
aI105
aI1
aI0
aI0
aI1
aI8
aI0
aI1
aI750
aI3
aa(lp52
I13
aI3
aI2
aI21
aI113
aI1
aI1
aI0
aI1
aI9
aI0
aI1
aI550
aI3
aa(lp53
I14
aI2
aI2
aI17
aI121
aI2
aI2
aI0
aI1
aI5
aI1
aI3
aI1295
aI1
aa(lp54
I14
aI1
aI2
aI14
aI97
aI2
aI2
aI0
aI1
aI5
aI1
aI2
aI1045
aI1
aa(lp55
I12
aI3
aI2
aI18
aI112
aI1
aI0
aI0
aI1
aI8
aI0
aI2
aI855
aI3
aa(lp56
I12
aI1
aI1
aI18
aI88
aI1
aI1
aI0
aI1
aI2
aI1
aI2
aI562
aI2
aa(lp57
I12
aI0
aI1
aI14
aI136
aI1
aI1
aI0
aI2
aI3
aI1
aI2
aI750
aI2
aa(lp58
I12
aI0
aI1
aI10
aI88
aI1
aI0
aI0
aI0
aI1
aI1
aI1
aI520
aI2
aa(lp59
I12
aI2
aI2
aI22
aI112
aI1
aI1
aI0
aI1
aI10
aI0
aI1
aI480
aI3
aa(lp60
I11
aI2
aI2
aI20
aI103
aI1
aI2
aI0
aI1
aI3
aI1
aI2
aI607
aI2
aa(lp61
I13
aI1
aI1
aI18
aI94
aI2
aI1
aI0
aI0
aI3
aI1
aI2
aI630
aI2
aa(lp62
I11
aI1
aI2
aI20
aI94
aI2
aI2
aI0
aI2
aI2
aI0
aI3
aI680
aI2
aa(lp63
I14
aI1
aI2
aI16
aI118
aI3
aI3
aI0
aI2
aI6
aI0
aI3
aI970
aI1
aa(lp64
I12
aI3
aI2
aI27
aI97
aI1
aI0
aI0
aI1
aI7
aI0
aI1
aI880
aI3
aa(lp65
I13
aI5
aI2
aI20
aI95
aI1
aI0
aI0
aI1
aI7
aI0
aI1
aI740
aI3
aa(lp66
I13
aI1
aI2
aI17
aI112
aI2
aI2
aI0
aI1
aI7
aI1
aI2
aI1310
aI1
aa(lp67
I13
aI4
aI2
aI19
aI89
aI1
aI0
aI0
aI1
aI9
aI0
aI1
aI480
aI3
aa(lp68
I12
aI3
aI2
aI21
aI106
aI1
aI1
aI0
aI0
aI5
aI0
aI1
aI600
aI3
aa(lp69
I13
aI1
aI2
aI12
aI92
aI2
aI3
aI0
aI2
aI7
aI1
aI2
aI1150
aI1
aa(lp70
I13
aI1
aI2
aI16
aI102
aI3
aI3
aI0
aI1
aI6
aI1
aI2
aI1270
aI1
aa(lp71
I13
aI1
aI2
aI19
aI106
aI2
aI3
aI0
aI1
aI6
aI1
aI2
aI1515
aI1
aa(lp72
I14
aI1
aI2
aI15
aI112
aI3
aI3
aI0
aI1
aI6
aI1
aI2
aI1450
aI1
aa(lp73
I11
aI4
aI2
aI21
aI82
aI2
aI3
aI0
aI2
aI2
aI0
aI3
aI380
aI2
aa(lp74
I12
aI4
aI2
aI21
aI89
aI1
aI0
aI0
aI0
aI3
aI0
aI1
aI720
aI3
aa(lp75
I13
aI1
aI2
aI17
aI108
aI2
aI3
aI0
aI2
aI8
aI1
aI3
aI1260
aI1
aa(lp76
I12
aI3
aI1
aI16
aI80
aI1
aI1
aI0
aI0
aI3
aI0
aI2
aI372
aI2
aa(lp77
I13
aI3
aI2
aI19
aI88
aI1
aI0
aI0
aI0
aI5
aI0
aI1
aI580
aI3
aa(lp78
I11
aI2
aI3
aI28
aI119
aI3
aI5
aI0
aI1
aI6
aI0
aI3
aI465
aI2
aa(lp79
I12
aI1
aI2
aI20
aI103
aI1
aI1
aI0
aI1
aI3
aI0
aI1
aI870
aI2
aa(lp80
I13
aI1
aI2
aI17
aI94
aI2
aI2
aI0
aI1
aI3
aI1
aI2
aI1285
aI1
aa(lp81
I12
aI1
aI2
aI24
aI88
aI2
aI2
aI0
aI1
aI2
aI0
aI2
aI342
aI2
aa(lp82
I13
aI3
aI2
aI18
aI98
aI1
aI0
aI0
aI1
aI10
aI0
aI1
aI675
aI3
aa(lp83
I12
aI1
aI2
aI21
aI86
aI2
aI3
aI0
aI1
aI3
aI0
aI2
aI352
aI2
aa(lp84
I12
aI3
aI2
aI18
aI102
aI2
aI2
aI0
aI1
aI4
aI1
aI3
aI770
aI1
aa(lp85
I14
aI1
aI2
aI12
aI102
aI3
aI3
aI0
aI2
aI7
aI1
aI3
aI1547
aI1
aa(lp86
I13
aI1
aI2
aI11
aI100
aI2
aI2
aI0
aI1
aI4
aI1
aI3
aI1050
aI1
aa(lp87
I12
aI1
aI1
aI19
aI92
aI2
aI2
aI0
aI2
aI2
aI0
aI3
aI312
aI2
aa(lp88
I13
aI3
aI2
aI22
aI85
aI1
aI1
aI0
aI1
aI4
aI0
aI2
aI515
aI2
aa(lp89
I11
aI1
aI2
aI21
aI101
aI3
aI2
aI0
aI1
aI3
aI0
aI3
aI886
aI2
aa(lp90
I13
aI3
aI2
aI15
aI116
aI2
aI3
aI0
aI1
aI5
aI0
aI3
aI845
aI1
aa(lp91
I13
aI1
aI2
aI25
aI116
aI2
aI1
aI0
aI1
aI7
aI0
aI1
aI425
aI3
aa(lp92
I12
aI3
aI2
aI19
aI88
aI1
aI0
aI0
aI0
aI10
aI0
aI1
aI685
aI3
aa(lp93
I12
aI0
aI2
aI18
aI99
aI2
aI1
aI0
aI1
aI2
aI1
aI3
aI450
aI2
aa(lp94
I14
aI3
aI2
aI16
aI102
aI3
aI3
aI0
aI2
aI4
aI1
aI3
aI1065
aI1
aa(lp95
I13
aI1
aI2
aI16
aI101
aI3
aI3
aI0
aI2
aI6
aI0
aI3
aI985
aI1
aa(lp96
I13
aI5
aI2
aI22
aI93
aI1
aI0
aI0
aI1
aI7
aI0
aI1
aI725
aI3
aa(lp97
I12
aI2
aI2
aI21
aI98
aI2
aI2
aI0
aI1
aI2
aI0
aI3
aI438
aI2
aa(lp98
I14
aI2
aI2
aI20
aI91
aI1
aI0
aI0
aI1
aI9
aI0
aI1
aI660
aI3
aa(lp99
I12
aI2
aI2
aI24
aI101
aI2
aI0
aI0
aI0
aI4
aI0
aI2
aI590
aI3
aa(lp100
I12
aI1
aI2
aI17
aI85
aI2
aI0
aI0
aI1
aI5
aI0
aI1
aI650
aI3
aa(lp101
I12
aI1
aI2
aI22
aI86
aI1
aI1
aI0
aI1
aI3
aI1
aI2
aI450
aI2
aa(lp102
I14
aI1
aI2
aI20
aI120
aI2
aI3
aI0
aI1
aI6
aI1
aI2
aI1280
aI1
aa(lp103
I13
aI1
aI2
aI15
aI101
aI3
aI3
aI0
aI1
aI5
aI0
aI3
aI1095
aI1
aa(lp104
I11
aI2
aI2
aI21
aI134
aI1
aI0
aI0
aI1
aI2
aI0
aI2
aI625
aI2
aa(lp105
I13
aI2
aI2
aI18
aI101
aI2
aI3
aI0
aI2
aI5
aI1
aI3
aI1185
aI1
aa(lp106
I13
aI1
aI2
aI22
aI101
aI3
aI3
aI0
aI2
aI5
aI1
aI2
aI1285
aI1
aa(lp107
I13
aI1
aI2
aI15
aI98
aI2
aI2
aI0
aI1
aI3
aI1
aI2
aI1020
aI1
aa(lp108
I13
aI1
aI2
aI16
aI93
aI2
aI2
aI0
aI1
aI4
aI0
aI3
aI1195
aI1
aa(lp109
I11
aI2
aI2
aI28
aI92
aI2
aI2
aI0
aI1
aI3
aI0
aI2
aI466
aI2
aa(lp110
I13
aI1
aI2
aI19
aI107
aI2
aI2
aI0
aI1
aI4
aI1
aI3
aI915
aI1
aa(lp111
I13
aI1
aI2
aI17
aI115
aI3
aI2
aI0
aI1
aI6
aI1
aI2
aI1375
aI1
aa(lp112
I14
aI3
aI2
aI13
aI128
aI3
aI3
aI0
aI2
aI5
aI0
aI3
aI760
aI1
aa(lp113
I13
aI3
aI2
aI23
aI111
aI1
aI0
aI0
aI1
aI10
aI0
aI1
aI695
aI3
aa(lp114
I11
aI3
aI1
aI19
aI107
aI3
aI2
aI0
aI3
aI2
aI0
aI2
aI562
aI2
aa(lp115
I12
aI1
aI2
aI19
aI104
aI1
aI1
aI0
aI1
aI2
aI1
aI2
aI355
aI2
aa(lp116
I12
aI1
aI2
aI22
aI84
aI1
aI1
aI0
aI1
aI3
aI0
aI2
aI488
aI2
aa(lp117
I11
aI2
aI2
aI18
aI112
aI1
aI1
aI0
aI0
aI2
aI0
aI2
aI500
aI2
aa(lp118
I13
aI1
aI2
aI15
aI110
aI2
aI2
aI0
aI1
aI4
aI1
aI2
aI880
aI1
aa(lp119
I12
aI1
aI2
aI18
aI88
aI3
aI3
aI0
aI1
aI4
aI1
aI2
aI660
aI2
aa(lp120
I13
aI2
aI2
aI20
aI89
aI1
aI0
aI0
aI0
aI5
aI0
aI2
aI780
aI3
aa(lp121
I11
aI0
aI2
aI18
aI94
aI2
aI2
aI0
aI2
aI3
aI0
aI3
aI520
aI2
aa(lp122
I13
aI3
aI2
aI21
aI102
aI1
aI0
aI0
aI1
aI4
aI0
aI1
aI830
aI3
aa(lp123
I13
aI1
aI2
aI16
aI108
aI3
aI3
aI0
aI2
aI6
aI0
aI2
aI1285
aI1
aa(lp124
I11
aI1
aI1
aI19
aI86
aI2
aI1
aI0
aI1
aI2
aI0
aI2
aI415
aI2
aa(lp125
I13
aI1
aI2
aI18
aI98
aI2
aI2
aI0
aI1
aI4
aI1
aI2
aI1105
aI1
aa(lp126
I13
aI4
aI2
aI22
aI88
aI1
aI0
aI0
aI1
aI6
aI0
aI1
aI520
aI3
aa(lp127
I13
aI3
aI2
aI17
aI103
aI2
aI2
aI0
aI1
aI4
aI0
aI3
aI680
aI1
aa(lp128
I14
aI1
aI2
aI16
aI113
aI3
aI3
aI0
aI2
aI7
aI0
aI3
aI1480
aI1
aa(lp129
I14
aI1
aI2
aI16
aI108
aI3
aI3
aI0
aI1
aI8
aI1
aI2
aI1680
aI1
aa(lp130
I14
aI1
aI2
aI11
aI91
aI3
aI3
aI0
aI2
aI5
aI1
aI2
aI1150
aI1
aa(lp131
I12
aI1
aI2
aI20
aI80
aI1
aI1
aI0
aI1
aI3
aI0
aI2
aI495
aI2
aa(lp132
I12
aI2
aI2
aI18
aI94
aI1
aI0
aI0
aI0
aI7
aI0
aI1
aI695
aI3
aa(lp133
I12
aI3
aI2
aI18
aI106
aI1
aI0
aI0
aI0
aI5
aI0
aI1
aI675
aI3
aa(lp134
I12
aI0
aI2
aI19
aI86
aI2
aI2
aI0
aI1
aI2
aI1
aI3
aI278
aI2
aa(lp135
I12
aI2
aI2
aI21
aI88
aI2
aI2
aI0
aI1
aI2
aI0
aI2
aI325
aI2
aa(lp136
I12
aI1
aI2
aI16
aI101
aI2
aI1
aI0
aI0
aI3
aI1
aI1
aI680
aI2
aa(lp137
I12
aI1
aI2
aI22
aI90
aI1
aI1
aI0
aI1
aI2
aI1
aI2
aI495
aI2
aa(lp138
I12
aI1
aI1
aI20
aI85
aI2
aI1
aI0
aI1
aI2
aI1
aI3
aI672
aI2
aa(lp139
I13
aI1
aI2
aI16
aI118
aI2
aI2
aI0
aI1
aI5
aI0
aI3
aI1060
aI1
aa(lp140
I12
aI3
aI2
aI21
aI88
aI2
aI0
aI0
aI1
aI7
aI0
aI1
aI520
aI3
aa(lp141
I12
aI2
aI2
aI22
aI90
aI1
aI1
aI0
aI1
aI2
aI0
aI3
aI315
aI2
aa(lp142
I12
aI1
aI2
aI19
aI162
aI2
aI2
aI0
aI3
aI2
aI1
aI2
aI937
aI2
aa(lp143
I12
aI1
aI2
aI24
aI78
aI2
aI1
aI0
aI1
aI2
aI1
aI2
aI630
aI2
aa(lp144
I13
aI5
aI2
aI21
aI86
aI2
aI2
aI0
aI2
aI2
aI0
aI3
aI380
aI2
aa(lp145
I13
aI5
aI2
aI20
aI80
aI0
aI0
aI0
aI0
aI4
aI0
aI1
aI415
aI3
aa(lp146
I13
aI4
aI2
aI20
aI120
aI1
aI0
aI0
aI1
aI10
aI0
aI1
aI835
aI3
aa(lp147
I14
aI4
aI2
aI18
aI111
aI2
aI2
aI0
aI1
aI5
aI0
aI3
aI1080
aI1
aa(lp148
I12
aI1
aI1
aI16
aI85
aI2
aI2
aI0
aI1
aI2
aI1
aI2
aI428
aI2
aa(lp149
I13
aI1
aI2
aI20
aI100
aI2
aI2
aI0
aI1
aI5
aI1
aI3
aI920
aI1
aa(lp150
I13
aI1
aI2
aI16
aI117
aI3
aI3
aI0
aI2
aI6
aI0
aI3
aI795
aI1
aa(lp151
I14
aI2
aI2
aI18
aI105
aI2
aI3
aI0
aI2
aI5
aI1
aI3
aI1510
aI1
aa(lp152
I14
aI1
aI2
aI25
aI98
aI2
aI1
aI0
aI2
aI13
aI0
aI1
aI660
aI3
aa(lp153
I12
aI3
aI2
aI23
aI101
aI2
aI2
aI0
aI1
aI2
aI1
aI3
aI463
aI2
aa(lp154
I12
aI1
aI1
aI19
aI78
aI2
aI2
aI0
aI1
aI4
aI1
aI3
aI510
aI2
aa(lp155
I12
aI1
aI2
aI18
aI86
aI2
aI2
aI0
aI1
aI3
aI1
aI3
aI714
aI2
aa(lp156
I12
aI1
aI2
aI22
aI84
aI2
aI2
aI0
aI1
aI2
aI0
aI3
aI385
aI2
aa(lp157
I12
aI2
aI2
aI24
aI98
aI1
aI1
aI0
aI0
aI5
aI0
aI1
aI560
aI3
aa(lp158
I11
aI1
aI2
aI26
aI88
aI1
aI1
aI0
aI1
aI2
aI1
aI3
aI562
aI2
aa(lp159
I12
aI4
aI2
aI26
aI102
aI2
aI2
aI0
aI1
aI2
aI0
aI3
aI365
aI2
aa(lp160
I13
aI1
aI1
aI15
aI78
aI2
aI3
aI0
aI2
aI5
aI1
aI3
aI502
aI2
aa(lp161
I13
aI3
aI2
aI24
aI123
aI1
aI1
aI0
aI1
aI8
aI0
aI1
aI500
aI3
aa(lp162
I12
aI1
aI2
aI22
aI108
aI2
aI2
aI0
aI1
aI2
aI1
aI2
aI345
aI2
aa(lp163
I14
aI4
aI2
aI24
aI96
aI2
aI0
aI0
aI1
aI9
aI0
aI1
aI560
aI3
aa(lp164
I14
aI1
aI2
aI16
aI95
aI2
aI2
aI0
aI1
aI5
aI1
aI2
aI1280
aI1
aa(lp165
I14
aI1
aI2
aI15
aI127
aI2
aI3
aI0
aI2
aI5
aI1
aI3
aI1065
aI1
aa(lp166
I11
aI2
aI2
aI21
aI84
aI1
aI1
aI0
aI1
aI2
aI1
aI2
aI680
aI2
aa(lp167
I12
aI2
aI2
aI19
aI86
aI1
aI0
aI0
aI0
aI9
aI0
aI1
aI470
aI3
aa(lp168
I13
aI1
aI2
aI19
aI110
aI2
aI2
aI0
aI1
aI4
aI1
aI2
aI1095
aI1
aa(lp169
I13
aI2
aI2
aI20
aI120
aI1
aI0
aI0
aI1
aI9
aI0
aI1
aI840
aI3
aa(lp170
I13
aI1
aI2
aI19
aI132
aI2
aI2
aI0
aI1
aI5
aI1
aI3
aI1235
aI1
aa(lp171
I13
aI2
aI2
aI21
aI118
aI2
aI2
aI0
aI1
aI4
aI1
aI2
aI735
aI1
aa(lp172
I14
aI1
aI2
aI16
aI126
aI3
aI3
aI0
aI2
aI5
aI1
aI3
aI780
aI1
aa(lp173
I14
aI2
aI2
aI18
aI103
aI2
aI2
aI0
aI2
aI6
aI1
aI2
aI1060
aI1
aa(lp174
I12
aI1
aI2
aI18
aI122
aI1
aI1
aI0
aI0
aI4
aI0
aI1
aI630
aI3
aa(lp175
I13
aI1
aI2
aI14
aI111
aI3
aI3
aI0
aI1
aI7
aI1
aI3
aI1190
aI1
aa(lp176
I13
aI1
aI2
aI16
aI101
aI2
aI2
aI0
aI1
aI3
aI1
aI4
aI1035
aI1
aa(lp177
I13
aI1
aI2
aI16
aI89
aI2
aI2
aI0
aI1
aI5
aI1
aI2
aI1320
aI1
aa(lp178
I13
aI4
aI2
aI20
aI92
aI2
aI0
aI0
aI1
aI4
aI0
aI2
aI550
aI3
aa(lp179
I13
aI1
aI2
aI25
aI86
aI2
aI2
aI0
aI1
aI3
aI1
aI3
aI410
aI2
aa.